Component: ARM Compiler 5.06 update 7 (build 960) Tool: armlink [4d3601]

==============================================================================

Section Cross References

    hardware_init.o(i.ADC_init) refers to lks32mc03x_adc.o(i.ADC_StructInit) for ADC_StructInit
    hardware_init.o(i.ADC_init) refers to lks32mc03x_adc.o(i.ADC_Init) for ADC_Init
    hardware_init.o(i.ADC_init) refers to signalchain_sample.o(i.ADC_NormalModeCFG) for ADC_NormalModeCFG
    hardware_init.o(i.CMP_init) refers to lks32mc03x_cmp.o(i.CMP_StructInit) for CMP_StructInit
    hardware_init.o(i.CMP_init) refers to lks32mc03x_sys.o(i.SYS_AnalogModuleClockCmd) for SYS_AnalogModuleClockCmd
    hardware_init.o(i.CMP_init) refers to lks32mc03x_cmp.o(i.CMP_Init) for CMP_Init
    hardware_init.o(i.DAC_Init) refers to lks32mc03x_sys.o(i.SYS_AnalogModuleClockCmd) for SYS_AnalogModuleClockCmd
    hardware_init.o(i.DebugPWM_OutputFunction) refers to lks32mc03x_mcpwm.o(i.PWMOutputs) for PWMOutputs
    hardware_init.o(i.GPIO_init) refers to lks32mc03x_gpio.o(i.GPIO_StructInit) for GPIO_StructInit
    hardware_init.o(i.GPIO_init) refers to lks32mc03x_gpio.o(i.GPIO_Init) for GPIO_Init
    hardware_init.o(i.GPIO_init) refers to lks32mc03x_gpio.o(i.GPIO_PinAFConfig) for GPIO_PinAFConfig
    hardware_init.o(i.HALL_Perip_Init) refers to lks32mc03x_sys.o(i.SYS_ModuleClockCmd) for SYS_ModuleClockCmd
    hardware_init.o(i.HALL_Perip_Init) refers to lks32mc03x_hall.o(i.HALL_StructInit) for HALL_StructInit
    hardware_init.o(i.HALL_Perip_Init) refers to lks32mc03x_hall.o(i.HALL_Init) for HALL_Init
    hardware_init.o(i.Hardware_init) refers to lks32mc03x_sys.o(i.SYS_ModuleClockCmd) for SYS_ModuleClockCmd
    hardware_init.o(i.Hardware_init) refers to hardware_init.o(i.ADC_init) for ADC_init
    hardware_init.o(i.Hardware_init) refers to hardware_init.o(i.MCPWM_init) for MCPWM_init
    hardware_init.o(i.Hardware_init) refers to hardware_init.o(i.UTimer_init) for UTimer_init
    hardware_init.o(i.Hardware_init) refers to hardware_init.o(i.GPIO_init) for GPIO_init
    hardware_init.o(i.Hardware_init) refers to hardware_init.o(i.DAC_Init) for DAC_Init
    hardware_init.o(i.Hardware_init) refers to hardware_init.o(i.PGA_Init) for PGA_Init
    hardware_init.o(i.Hardware_init) refers to hardware_init.o(i.I2C_init) for I2C_init
    hardware_init.o(i.Hardware_init) refers to hardware_init.o(i.CMP_init) for CMP_init
    hardware_init.o(i.Hardware_init) refers to hardware_init.o(i.HALL_Perip_Init) for HALL_Perip_Init
    hardware_init.o(i.Hardware_init) refers to hardware_init.o(i.TempSensor_Init) for TempSensor_Init
    hardware_init.o(i.Hardware_init) refers to task_scheduler.o(i.SoftDelay) for SoftDelay
    hardware_init.o(i.Hardware_init) refers to hardware_init.o(i.__NVIC_SetPriority) for __NVIC_SetPriority
    hardware_init.o(i.Hardware_init) refers to hardware_init.o(i.__NVIC_EnableIRQ) for __NVIC_EnableIRQ
    hardware_init.o(i.Hardware_init) refers to hardware_init.o(i.__NVIC_DisableIRQ) for __NVIC_DisableIRQ
    hardware_init.o(i.I2C_init) refers to lks32mc03x_i2c.o(i.I2C_StructInit) for I2C_StructInit
    hardware_init.o(i.I2C_init) refers to lks32mc03x_i2c.o(i.I2C_Init) for I2C_Init
    hardware_init.o(i.MCPWM_init) refers to lks32mc03x_mcpwm.o(i.MCPWM_StructInit) for MCPWM_StructInit
    hardware_init.o(i.MCPWM_init) refers to lks32mc03x_mcpwm.o(i.MCPWM_Init) for MCPWM_Init
    hardware_init.o(i.MCPWM_init) refers to global_variable.o(.bss) for mIPD_CtrProc
    hardware_init.o(i.PGA_Init) refers to lks32mc03x_sys.o(i.SYS_AnalogModuleClockCmd) for SYS_AnalogModuleClockCmd
    hardware_init.o(i.SystemInit) refers to hardware_init.o(i.Clock_Init) for Clock_Init
    hardware_init.o(i.TempSensor_Init) refers to lks32mc03x_sys.o(i.SYS_AnalogModuleClockCmd) for SYS_AnalogModuleClockCmd
    hardware_init.o(i.UART_init) refers to lks32mc03x_uart.o(i.UART_StructInit) for UART_StructInit
    hardware_init.o(i.UART_init) refers to lks32mc03x_uart.o(i.UART_Init) for UART_Init
    hardware_init.o(i.UTimer_init) refers to lks32mc03x_timer.o(i.TIM_TimerStrutInit) for TIM_TimerStrutInit
    hardware_init.o(i.UTimer_init) refers to lks32mc03x_timer.o(i.TIM_TimerInit) for TIM_TimerInit
    interrupt.o(i.ADC_IRQHandler) refers to foc_drive.o(i.FOC_Model) for FOC_Model
    interrupt.o(i.ADC_IRQHandler) refers to fluxobserve.o(i.DcVoltPerUnitCalcInt) for DcVoltPerUnitCalcInt
    interrupt.o(i.ADC_IRQHandler) refers to fault_detection.o(i.CurrentAmplitudeCalc) for CurrentAmplitudeCalc
    interrupt.o(i.ADC_IRQHandler) refers to fault_detection.o(i.FaultCurrentCheck) for FaultCurrentCheck
    interrupt.o(i.ADC_IRQHandler) refers to heatcontrol.o(i.HeaterControl) for HeaterControl
    interrupt.o(i.ADC_IRQHandler) refers to lks32mc03x_mcpwm.o(i.PWMOutputs) for PWMOutputs
    interrupt.o(i.ADC_IRQHandler) refers to global_variable.o(.bss) for struFOC_CtrProc
    interrupt.o(i.ADC_IRQHandler) refers to global_variable.o(.bss) for struTaskScheduler
    interrupt.o(i.ADC_IRQHandler) refers to global_variable.o(.bss) for struFOC_CurrLoop
    interrupt.o(i.ADC_IRQHandler) refers to fault_detection.o(.data) for struImaxCurrent
    interrupt.o(i.ADC_IRQHandler) refers to fault_detection.o(.bss) for struCurrentAmplitude
    interrupt.o(i.ADC_IRQHandler) refers to foc_drive.o(.data) for Mag_nCurr
    interrupt.o(i.CMP_IRQHandler) refers to lks32mc03x_mcpwm.o(i.PWMOutputs) for PWMOutputs
    interrupt.o(i.CMP_IRQHandler) refers to fault_detection.o(.data) for stru_Faults
    interrupt.o(i.I2C_IRQHandler) refers to lks32mc03x_i2c.o(i.i2c_dma_state_over) for i2c_dma_state_over
    interrupt.o(i.MCPWM0_IRQHandler) refers to lks32mc03x_mcpwm.o(i.PWMOutputs) for PWMOutputs
    interrupt.o(i.MCPWM0_IRQHandler) refers to fault_detection.o(.data) for stru_Faults
    interrupt.o(i.TIMER1_IRQHandler) refers to global_variable.o(.bss) for struTaskScheduler
    system_init.o(i.CurrentOffsetCalibration) refers to signalchain_sample.o(i.ADC_NormalModeCFG) for ADC_NormalModeCFG
    system_init.o(i.CurrentOffsetCalibration) refers to signalchain_sample.o(i.MCPWM0_RegUpdate) for MCPWM0_RegUpdate
    system_init.o(i.CurrentOffsetCalibration) refers to lks32mc03x_mcpwm.o(i.PWMOutputs) for PWMOutputs
    system_init.o(i.CurrentOffsetCalibration) refers to hardware_init.o(i.ADC_init) for ADC_init
    system_init.o(i.CurrentOffsetCalibration) refers to global_variable.o(.bss) for struFOC_CurrLoop
    system_init.o(i.CurrentOffsetCalibration) refers to fault_detection.o(.data) for stru_Faults
    system_init.o(i.FluxObserveInit) refers to fluxobserve.o(i.FluxObserveParaCalc) for FluxObserveParaCalc
    system_init.o(i.FluxObserveInit) refers to foc_drive.o(i.FOC_InitstruParam) for FOC_InitstruParam
    system_init.o(i.FluxObserveInit) refers to global_variable.o(.bss) for struFluxOB_Param
    system_init.o(i.FluxObserveInit) refers to global_variable.o(.constdata) for struMotorParam
    system_init.o(i.FluxObserveInit) refers to global_variable.o(.constdata) for struBoardParam
    system_init.o(i.FluxObserveInit) refers to fluxobserve.o(.bss) for m_FluxOBSPara
    system_init.o(i.sys_init) refers to system_init.o(i.CurrentOffsetCalibration) for CurrentOffsetCalibration
    system_init.o(i.sys_init) refers to system_init.o(i.FluxObserveInit) for FluxObserveInit
    system_init.o(i.sys_init) refers to fault_detection.o(i.FaultInit) for FaultInit
    system_init.o(i.sys_init) refers to fault_detection.o(i.FaultRecoverInit) for FaultRecoverInit
    system_init.o(i.sys_init) refers to global_variable.o(.constdata) for sVersion
    system_init.o(i.sys_init) refers to global_variable.o(.bss) for struTaskScheduler
    task_scheduler.o(i.Task_Scheduler) refers to fault_detection.o(i.FaultCheck) for FaultCheck
    task_scheduler.o(i.Task_Scheduler) refers to user_app.o(i.USER_APP_vTick1ms) for USER_APP_vTick1ms
    task_scheduler.o(i.Task_Scheduler) refers to user_app.o(i.GetVdcSpeed) for GetVdcSpeed
    task_scheduler.o(i.Task_Scheduler) refers to state_machine.o(i.Sys_State_Machine) for Sys_State_Machine
    task_scheduler.o(i.Task_Scheduler) refers to fluxobserve.o(i.DcVoltPerUnitCalc) for DcVoltPerUnitCalc
    task_scheduler.o(i.Task_Scheduler) refers to user_app.o(i.USER_APP_vTick10ms) for USER_APP_vTick10ms
    task_scheduler.o(i.Task_Scheduler) refers to user_app.o(i.Temp_circulation) for Temp_circulation
    task_scheduler.o(i.Task_Scheduler) refers to user_app.o(i.USER_APP_vTick20ms) for USER_APP_vTick20ms
    task_scheduler.o(i.Task_Scheduler) refers to heatcontrol.o(i.HeaterTemperature_Control) for HeaterTemperature_Control
    task_scheduler.o(i.Task_Scheduler) refers to user_app.o(i.vLoadForFlashing) for vLoadForFlashing
    task_scheduler.o(i.Task_Scheduler) refers to user_app.o(i.USER_APP_vTick500ms) for USER_APP_vTick500ms
    task_scheduler.o(i.Task_Scheduler) refers to global_variable.o(.bss) for struTaskScheduler
    task_scheduler.o(i.Task_Scheduler) refers to global_variable.o(.bss) for struFOC_CtrProc
    task_scheduler.o(i.Task_Scheduler) refers to fault_detection.o(.data) for stru_Faults
    task_scheduler.o(i.Task_Scheduler) refers to global_variable.o(.bss) for struFOC_CurrLoop
    task_scheduler.o(i.Task_Scheduler) refers to heatcontrol.o(.bss) for FRSControl
    state_machine.o(i.CurrentLoopAxisD_Set) refers to global_variable.o(.bss) for struFOC_CurrLoop
    state_machine.o(i.CurrentLoopAxisD_Set) refers to global_variable.o(.bss) for struAppCommData
    state_machine.o(i.CurrentLoopAxisQ_Set) refers to global_variable.o(.bss) for struFOC_CurrLoop
    state_machine.o(i.CurrentLoopAxisQ_Set) refers to global_variable.o(.bss) for struAppCommData
    state_machine.o(i.StateAlign) refers to app2core.o(i.User2AppCurTrans) for User2AppCurTrans
    state_machine.o(i.StateAlign) refers to process_control.o(i.OpenLoopCurRamp) for OpenLoopCurRamp
    state_machine.o(i.StateAlign) refers to global_variable.o(.bss) for struMotorSpeed
    state_machine.o(i.StateAlign) refers to state_machine.o(.bss) for .bss
    state_machine.o(i.StateAlign) refers to global_variable.o(.bss) for struAppCommData
    state_machine.o(i.StateAlign) refers to global_variable.o(.bss) for mOpenForceRun
    state_machine.o(i.StateAlign) refers to global_variable.o(.bss) for struFOC_CtrProc
    state_machine.o(i.StateAlign) refers to global_variable.o(.bss) for struFOC_CurrLoop
    state_machine.o(i.StateCharge) refers to lks32mc03x_mcpwm.o(i.PWMOutputs) for PWMOutputs
    state_machine.o(i.StateCharge) refers to hardware_init.o(i.MCPWM_init) for MCPWM_init
    state_machine.o(i.StateCharge) refers to state_machine.o(i.StateInit) for StateInit
    state_machine.o(i.StateCharge) refers to global_variable.o(.bss) for struAppCommData
    state_machine.o(i.StateCharge) refers to global_variable.o(.bss) for struFOC_CurrLoop
    state_machine.o(i.StateCharge) refers to state_machine.o(.bss) for .bss
    state_machine.o(i.StateCharge) refers to global_variable.o(.bss) for mIPD_CtrProc
    state_machine.o(i.StateDirCheck) refers to app2core.o(i.User2AppCurTrans) for User2AppCurTrans
    state_machine.o(i.StateDirCheck) refers to app2core.o(i.App2CoreCurTrans) for App2CoreCurTrans
    state_machine.o(i.StateDirCheck) refers to global_variable.o(.bss) for struFOC_CurrLoop
    state_machine.o(i.StateDirCheck) refers to state_machine.o(.bss) for .bss
    state_machine.o(i.StateDirCheck) refers to global_variable.o(.bss) for struFOC_CtrProc
    state_machine.o(i.StateDirCheck) refers to global_variable.o(.bss) for struAppCommData
    state_machine.o(i.StateDirCheck) refers to global_variable.o(.bss) for mOnTheFlyDetect
    state_machine.o(i.StateDirCheckVacuum) refers to signalchain_sample.o(i.ADC_NormalModeCFG1) for ADC_NormalModeCFG1
    state_machine.o(i.StateDirCheckVacuum) refers to signalchain_sample.o(i.ADC_NormalModeCFG) for ADC_NormalModeCFG
    state_machine.o(i.StateDirCheckVacuum) refers to lks32mc03x_mcpwm.o(i.PWMOutputs) for PWMOutputs
    state_machine.o(i.StateDirCheckVacuum) refers to state_machine.o(.data) for .data
    state_machine.o(i.StateDirCheckVacuum) refers to global_variable.o(.bss) for struFOC_CtrProc
    state_machine.o(i.StateDirCheckVacuum) refers to global_variable.o(.bss) for mOnTheFlyDetect
    state_machine.o(i.StateFault) refers to lks32mc03x_mcpwm.o(i.PWMOutputs) for PWMOutputs
    state_machine.o(i.StateFault) refers to fault_detection.o(i.FaultRecover) for FaultRecover
    state_machine.o(i.StateFault) refers to global_variable.o(.bss) for struFOC_CtrProc
    state_machine.o(i.StateHallRun) refers to app2core.o(i.User2AppFreqTrans) for User2AppFreqTrans
    state_machine.o(i.StateHallRun) refers to app2core.o(i.App2CoreFreqTrans) for App2CoreFreqTrans
    state_machine.o(i.StateHallRun) refers to state_machine.o(i.SpeedLoop_Set) for SpeedLoop_Set
    state_machine.o(i.StateHallRun) refers to foc_drive.o(i.SpeedLoopReg) for SpeedLoopReg
    state_machine.o(i.StateHallRun) refers to state_machine.o(i.CurrentLoopAxisD_Set) for CurrentLoopAxisD_Set
    state_machine.o(i.StateHallRun) refers to state_machine.o(i.CurrentLoopAxisQ_Set) for CurrentLoopAxisQ_Set
    state_machine.o(i.StateHallRun) refers to global_variable.o(.bss) for struMotorSpeed
    state_machine.o(i.StateInit) refers to lks32mc03x_mcpwm.o(i.PWMOutputs) for PWMOutputs
    state_machine.o(i.StateInit) refers to app2core.o(i.User2AppFreqTrans) for User2AppFreqTrans
    state_machine.o(i.StateInit) refers to fluxobserve.o(i.OnTheFlyDetectInit) for OnTheFlyDetectInit
    state_machine.o(i.StateInit) refers to app2core.o(i.User2AppAngleTrans) for User2AppAngleTrans
    state_machine.o(i.StateInit) refers to app2core.o(i.User2AppCurTrans) for User2AppCurTrans
    state_machine.o(i.StateInit) refers to app2core.o(i.App2CoreCurTrans) for App2CoreCurTrans
    state_machine.o(i.StateInit) refers to app2core.o(i.App2CoreFreqTrans) for App2CoreFreqTrans
    state_machine.o(i.StateInit) refers to fluxobserve.o(i.PmsmFluxObIni) for PmsmFluxObIni
    state_machine.o(i.StateInit) refers to fault_detection.o(i.FaultInit) for FaultInit
    state_machine.o(i.StateInit) refers to hardware_init.o(i.ADC_init) for ADC_init
    state_machine.o(i.StateInit) refers to global_variable.o(.bss) for struAppCommData
    state_machine.o(i.StateInit) refers to global_variable.o(.bss) for mOnTheFlyDetect
    state_machine.o(i.StateInit) refers to global_variable.o(.bss) for struFOC_CtrProc
    state_machine.o(i.StateInit) refers to global_variable.o(.bss) for struFOC_CurrLoop
    state_machine.o(i.StateInit) refers to global_variable.o(.bss) for mOpenForceRun
    state_machine.o(i.StateInit) refers to state_machine.o(.data) for .data
    state_machine.o(i.StateInit) refers to global_variable.o(.bss) for struMotorSpeed
    state_machine.o(i.StateInit) refers to user_app.o(.bss) for UserSys
    state_machine.o(i.StateInit) refers to powercalculation.o(.bss) for struPower
    state_machine.o(i.StateInit) refers to global_variable.o(.bss) for struFluxOB_Param
    state_machine.o(i.StateInit) refers to state_machine.o(.bss) for .bss
    state_machine.o(i.StateInit) refers to heatcontrol.o(.bss) for FRSControl
    state_machine.o(i.StateOpen) refers to app2core.o(i.User2AppFreqTrans) for User2AppFreqTrans
    state_machine.o(i.StateOpen) refers to process_control.o(i.SpeedReferenceGen) for SpeedReferenceGen
    state_machine.o(i.StateOpen) refers to app2core.o(i.App2CoreFreqTrans) for App2CoreFreqTrans
    state_machine.o(i.StateOpen) refers to app2core.o(i.User2AppCurTrans) for User2AppCurTrans
    state_machine.o(i.StateOpen) refers to app2core.o(i.App2CoreCurTrans) for App2CoreCurTrans
    state_machine.o(i.StateOpen) refers to state_machine.o(i.CurrentLoopAxisD_Set) for CurrentLoopAxisD_Set
    state_machine.o(i.StateOpen) refers to state_machine.o(i.CurrentLoopAxisQ_Set) for CurrentLoopAxisQ_Set
    state_machine.o(i.StateOpen) refers to global_variable.o(.bss) for struAppCommData
    state_machine.o(i.StateOpen) refers to global_variable.o(.bss) for struFOC_CtrProc
    state_machine.o(i.StateOpen) refers to global_variable.o(.bss) for mOpenForceRun
    state_machine.o(i.StateOpen) refers to global_variable.o(.bss) for struMotorSpeed
    state_machine.o(i.StateOpen) refers to global_variable.o(.bss) for struFluxOB_Param
    state_machine.o(i.StateOpen) refers to global_variable.o(.bss) for struFOC_CurrLoop
    state_machine.o(i.StatePosSeek) refers to lib_ipd.o(i.IPD_RotorPosEst) for IPD_RotorPosEst
    state_machine.o(i.StatePosSeek) refers to hardware_init.o(i.ADC_init) for ADC_init
    state_machine.o(i.StatePosSeek) refers to hardware_init.o(i.MCPWM_init) for MCPWM_init
    state_machine.o(i.StatePosSeek) refers to global_variable.o(.bss) for mIPD_CtrProc
    state_machine.o(i.StatePosSeek) refers to global_variable.o(.bss) for struFOC_CtrProc
    state_machine.o(i.StatePosSeek) refers to global_variable.o(.bss) for struAppCommData
    state_machine.o(i.StatePosSeek) refers to global_variable.o(.bss) for struFluxOB_Param
    state_machine.o(i.StateRun) refers to state_machine.o(i.CurrentLoopAxisQ_Set) for CurrentLoopAxisQ_Set
    state_machine.o(i.StateRun) refers to state_machine.o(i.SpeedLoop_Set) for SpeedLoop_Set
    state_machine.o(i.StateRun) refers to foc_drive.o(i.SpeedLoopReg) for SpeedLoopReg
    state_machine.o(i.StateRun) refers to fluxobserve.o(i.AutoFieldWeakReg) for AutoFieldWeakReg
    state_machine.o(i.StateRun) refers to app2core.o(i.User2AppCurTrans) for User2AppCurTrans
    state_machine.o(i.StateRun) refers to app2core.o(i.App2CoreCurTrans) for App2CoreCurTrans
    state_machine.o(i.StateRun) refers to state_machine.o(i.CurrentLoopAxisD_Set) for CurrentLoopAxisD_Set
    state_machine.o(i.StateRun) refers to state_machine.o(.bss) for .bss
    state_machine.o(i.StateRun) refers to global_variable.o(.bss) for struAppCommData
    state_machine.o(i.StateRun) refers to state_machine.o(.data) for .data
    state_machine.o(i.StateRun) refers to global_variable.o(.bss) for struMotorSpeed
    state_machine.o(i.StateRun) refers to global_variable.o(.bss) for struFOC_CurrLoop
    state_machine.o(i.StateRun) refers to fluxobserve.o(.data) for g_FluxObsMode
    state_machine.o(i.StateRun) refers to user_app.o(.bss) for UserSys
    state_machine.o(i.StateRun) refers to user_app.o(.data) for iTargetGear
    state_machine.o(i.StateRun) refers to global_variable.o(.bss) for struFOC_CtrProc
    state_machine.o(i.StateRun) refers to heatcontrol.o(.bss) for FRSControl
    state_machine.o(i.StateRun) refers to global_variable.o(.bss) for struFluxOB_Param
    state_machine.o(i.StateStop) refers to state_machine.o(.bss) for .bss
    state_machine.o(i.StateStop) refers to global_variable.o(.bss) for struFOC_CtrProc
    state_machine.o(i.Sys_State_Machine) refers to state_machine.o(i.__ARM_common_switch8) for __ARM_common_switch8
    state_machine.o(i.Sys_State_Machine) refers to state_machine.o(i.StateInit) for StateInit
    state_machine.o(i.Sys_State_Machine) refers to state_machine.o(i.StateCharge) for StateCharge
    state_machine.o(i.Sys_State_Machine) refers to lks32mc03x_mcpwm.o(i.PWMOutputs) for PWMOutputs
    state_machine.o(i.Sys_State_Machine) refers to state_machine.o(i.StateAlign) for StateAlign
    state_machine.o(i.Sys_State_Machine) refers to state_machine.o(i.StateOpen) for StateOpen
    state_machine.o(i.Sys_State_Machine) refers to state_machine.o(i.StateRun) for StateRun
    state_machine.o(i.Sys_State_Machine) refers to state_machine.o(i.StateStop) for StateStop
    state_machine.o(i.Sys_State_Machine) refers to state_machine.o(i.StateFault) for StateFault
    state_machine.o(i.Sys_State_Machine) refers to global_variable.o(.bss) for struFOC_CtrProc
    state_machine.o(i.Sys_State_Machine) refers to heatcontrol.o(.bss) for FRSControl
    state_machine.o(i.Sys_State_Machine) refers to fault_detection.o(.data) for stru_Faults
    state_machine.o(i.Sys_State_Machine) refers to user_app.o(.bss) for UserSys
    state_machine.o(i.Sys_State_Machine) refers to user_app.o(.data) for s32uDCfil
    state_machine.o(i.Sys_State_Machine) refers to fault_detection.o(.bss) for stru_FaultValue
    fault_detection.o(i.FaultBlockCheck) refers to lks32mc03x_mcpwm.o(i.PWMOutputs) for PWMOutputs
    fault_detection.o(i.FaultBlockCheck) refers to user_app.o(.data) for t_VdcSpdCoef
    fault_detection.o(i.FaultBlockCheck) refers to fault_detection.o(.bss) for .bss
    fault_detection.o(i.FaultBlockCheck) refers to fault_detection.o(.data) for .data
    fault_detection.o(i.FaultCheck) refers to state_machine.o(i.__ARM_common_switch8) for __ARM_common_switch8
    fault_detection.o(i.FaultCheck) refers to fault_detection.o(i.FaultVoltageCheck) for FaultVoltageCheck
    fault_detection.o(i.FaultCheck) refers to fault_detection.o(i.FaultStallCheck) for FaultStallCheck
    fault_detection.o(i.FaultCheck) refers to fault_detection.o(i.FaultTempCheck) for FaultTempCheck
    fault_detection.o(i.FaultCheck) refers to fault_detection.o(i.FaultPhaseCheck) for FaultPhaseCheck
    fault_detection.o(i.FaultCheck) refers to fault_detection.o(i.FaultStartCheck) for FaultStartCheck
    fault_detection.o(i.FaultCheck) refers to fault_detection.o(.data) for .data
    fault_detection.o(i.FaultCheck) refers to heatcontrol.o(.bss) for FRSControl
    fault_detection.o(i.FaultCheck) refers to global_variable.o(.bss) for struFOC_CurrLoop
    fault_detection.o(i.FaultCheck) refers to global_variable.o(.bss) for struFOC_CtrProc
    fault_detection.o(i.FaultCheck) refers to global_variable.o(.bss) for struMotorSpeed
    fault_detection.o(i.FaultCheck) refers to fault_detection.o(.bss) for .bss
    fault_detection.o(i.FaultCheck) refers to user_app.o(.bss) for UserSys
    fault_detection.o(i.FaultCurrentCheck) refers to lks32mc03x_mcpwm.o(i.PWMOutputs) for PWMOutputs
    fault_detection.o(i.FaultCurrentCheck) refers to fault_detection.o(.data) for .data
    fault_detection.o(i.FaultEmptyCheck) refers to lks32mc03x_mcpwm.o(i.PWMOutputs) for PWMOutputs
    fault_detection.o(i.FaultEmptyCheck) refers to fault_detection.o(.bss) for .bss
    fault_detection.o(i.FaultEmptyCheck) refers to fault_detection.o(.data) for .data
    fault_detection.o(i.FaultInit) refers to app2core.o(i.User2AppCurTrans) for User2AppCurTrans
    fault_detection.o(i.FaultInit) refers to app2core.o(i.App2CoreCurTrans) for App2CoreCurTrans
    fault_detection.o(i.FaultInit) refers to app2core.o(i.User2AppVolTrans) for User2AppVolTrans
    fault_detection.o(i.FaultInit) refers to app2core.o(i.User2AppFreqTrans) for User2AppFreqTrans
    fault_detection.o(i.FaultInit) refers to app2core.o(i.App2CoreFreqTrans) for App2CoreFreqTrans
    fault_detection.o(i.FaultInit) refers to fault_detection.o(.bss) for .bss
    fault_detection.o(i.FaultInit) refers to global_variable.o(.bss) for struFOC_CurrLoop
    fault_detection.o(i.FaultInit) refers to fault_detection.o(.data) for .data
    fault_detection.o(i.FaultPhaseCheck) refers to lks32mc03x_mcpwm.o(i.PWMOutputs) for PWMOutputs
    fault_detection.o(i.FaultPhaseCheck) refers to fault_detection.o(.data) for .data
    fault_detection.o(i.FaultPhaseCheck) refers to fault_detection.o(.bss) for .bss
    fault_detection.o(i.FaultRecover) refers to fault_detection.o(.data) for .data
    fault_detection.o(i.FaultRecover) refers to global_variable.o(.bss) for struFOC_CurrLoop
    fault_detection.o(i.FaultRecover) refers to fault_detection.o(.bss) for .bss
    fault_detection.o(i.FaultRecover) refers to heatcontrol.o(.bss) for FRSControl
    fault_detection.o(i.FaultRecoverInit) refers to app2core.o(i.User2AppVolTrans) for User2AppVolTrans
    fault_detection.o(i.FaultRecoverInit) refers to fault_detection.o(.data) for .data
    fault_detection.o(i.FaultRecoverInit) refers to fault_detection.o(.bss) for .bss
    fault_detection.o(i.FaultStallCheck) refers to lks32mc03x_mcpwm.o(i.PWMOutputs) for PWMOutputs
    fault_detection.o(i.FaultStallCheck) refers to fault_detection.o(.bss) for .bss
    fault_detection.o(i.FaultStallCheck) refers to global_variable.o(.bss) for struFOC_CtrProc
    fault_detection.o(i.FaultStallCheck) refers to fault_detection.o(.data) for .data
    fault_detection.o(i.FaultStartCheck) refers to lks32mc03x_mcpwm.o(i.PWMOutputs) for PWMOutputs
    fault_detection.o(i.FaultStartCheck) refers to fluxobserve.o(.data) for g_FluxObsMode
    fault_detection.o(i.FaultStartCheck) refers to fault_detection.o(.data) for .data
    fault_detection.o(i.FaultStartCheck) refers to global_variable.o(.bss) for struFOC_CtrProc
    fault_detection.o(i.FaultStartCheck) refers to fault_detection.o(.bss) for .bss
    fault_detection.o(i.FaultStartCheck) refers to heatcontrol.o(.bss) for FRSControl
    fault_detection.o(i.FaultStartCheck) refers to global_variable.o(.bss) for struMotorSpeed
    fault_detection.o(i.FaultVoltageCheck) refers to lks32mc03x_mcpwm.o(i.PWMOutputs) for PWMOutputs
    fault_detection.o(i.FaultVoltageCheck) refers to fault_detection.o(.bss) for .bss
    fault_detection.o(i.FaultVoltageCheck) refers to fault_detection.o(.data) for .data
    powercalculation.o(i.LowPassControl) refers to llsshr.o(.text) for __aeabi_lasr
    powercalculation.o(i.PowerCalc) refers to powercalculation.o(i.LowPassControl) for LowPassControl
    powercalculation.o(i.PowerCalc) refers to global_variable.o(.bss) for struFOC_CurrLoop
    powercalculation.o(i.PowerLoopInit) refers to app2core.o(i.User2AppCurTrans) for User2AppCurTrans
    powercalculation.o(i.PowerLoopInit) refers to app2core.o(i.App2CoreCurTrans) for App2CoreCurTrans
    powercalculation.o(i.PowerLoopInit) refers to app2core.o(i.User2AppFreqTrans) for User2AppFreqTrans
    powercalculation.o(i.PowerLoopInit) refers to app2core.o(i.App2CoreFreqTrans) for App2CoreFreqTrans
    powercalculation.o(i.PowerLoopInit) refers to powercalculation.o(.bss) for .bss
    powercalculation.o(i.PowerLoopInit) refers to global_variable.o(.bss) for struAppCommData
    powercalculation.o(i.PowerLoopReg) refers to powercalculation.o(i.PowerPIRegulator) for PowerPIRegulator
    powercalculation.o(i.PowerLoopReg) refers to global_variable.o(.bss) for struFOC_CurrLoop
    speedscan.o(i.PWMDutyScan) refers to aeabi_sdiv.o(.text) for __aeabi_idivmod
    speedscan.o(i.PWMDutyScan) refers to speedscan.o(.bss) for .bss
    speedscan.o(i.PWMScan) refers to speedscan.o(.bss) for .bss
    speedscan.o(i.PWMScanInit) refers to speedscan.o(.bss) for .bss
    speedscan.o(i.PWMSpeedScan) refers to fflti.o(.text) for __aeabi_i2f
    speedscan.o(i.PWMSpeedScan) refers to fmul.o(x$fpl$fmul) for __aeabi_fmul
    speedscan.o(i.PWMSpeedScan) refers to f2d.o(.text) for __aeabi_f2d
    speedscan.o(i.PWMSpeedScan) refers to daddsub.o(.text) for __aeabi_dadd
    speedscan.o(i.PWMSpeedScan) refers to dfixi.o(.text) for __aeabi_d2iz
    speedscan.o(i.PWMSpeedScan) refers to speedscan.o(.bss) for .bss
    speedscan.o(i.PWMSpeedScan) refers to global_variable.o(.bss) for struAppCommData
    speedscan.o(i.PWMSpeedScan) refers to global_variable.o(.bss) for struFOC_CtrProc
    speedscan.o(i.PWMSpeedScan) refers to fault_detection.o(.data) for stru_Faults
    speedscan.o(i.VspSpeedScan) refers to dflti.o(.text) for __aeabi_i2d
    speedscan.o(i.VspSpeedScan) refers to daddsub.o(.text) for __aeabi_dsub
    speedscan.o(i.VspSpeedScan) refers to dmul.o(.text) for __aeabi_dmul
    speedscan.o(i.VspSpeedScan) refers to dfixi.o(.text) for __aeabi_d2iz
    speedscan.o(i.VspSpeedScan) refers to global_variable.o(.bss) for struAppCommData
    speedscan.o(i.VspSpeedScan) refers to global_variable.o(.bss) for struFOC_CtrProc
    speedscan.o(i.VspSpeedScan) refers to fault_detection.o(.data) for stru_Faults
    heatcontrol.o(i.HeaterControl) refers to lks32mc03x_gpio.o(i.GPIO_ReadInputDataBit) for GPIO_ReadInputDataBit
    heatcontrol.o(i.HeaterControl) refers to lks32mc03x_gpio.o(i.GPIO_SetBits) for GPIO_SetBits
    heatcontrol.o(i.HeaterControl) refers to lks32mc03x_gpio.o(i.GPIO_ResetBits) for GPIO_ResetBits
    heatcontrol.o(i.HeaterControl) refers to global_variable.o(.bss) for struFOC_CtrProc
    heatcontrol.o(i.HeaterControl) refers to heatcontrol.o(.bss) for .bss
    heatcontrol.o(i.HeaterControl) refers to global_variable.o(.bss) for struMotorSpeed
    heatcontrol.o(i.HeaterControl) refers to fault_detection.o(.data) for stru_Faults
    heatcontrol.o(i.HeaterControl) refers to user_app.o(.bss) for UserSys
    heatcontrol.o(i.HeaterControl) refers to heatcontrol.o(.constdata) for .constdata
    heatcontrol.o(i.HeaterControl) refers to heatcontrol.o(.data) for .data
    heatcontrol.o(i.HeaterControl_1ms) refers to heatcontrol.o(.bss) for .bss
    heatcontrol.o(i.HeaterControl_1ms) refers to global_variable.o(.bss) for struFOC_CurrLoop
    heatcontrol.o(i.HeaterControl_1ms) refers to heatcontrol.o(.data) for .data
    heatcontrol.o(i.HeaterTemperature_Control) refers to user_app.o(.data) for iTargetGear
    heatcontrol.o(i.HeaterTemperature_Control) refers to heatcontrol.o(.bss) for .bss
    main.o(i.main) refers to user_app.o(i.USER_GPIO_Init) for USER_GPIO_Init
    main.o(i.main) refers to hardware_init.o(i.Hardware_init) for Hardware_init
    main.o(i.main) refers to system_init.o(i.sys_init) for sys_init
    main.o(i.main) refers to user_app.o(i.USER_Init) for USER_Init
    main.o(i.main) refers to user_app.o(i.LCD_Process) for LCD_Process
    main.o(i.main) refers to task_scheduler.o(i.Task_Scheduler) for Task_Scheduler
    main.o(i.main) refers to onthefly.o(.data) for g_AngleComp
    mc_math.o(i.Trig_Functions) refers to mc_math.o(.constdata) for .constdata
    app2core.o(i.App2CoreAngleTrans) refers to global_variable.o(.bss) for struApp2Core
    app2core.o(i.App2CoreCurTrans) refers to global_variable.o(.bss) for struApp2Core
    app2core.o(i.App2CoreFreqTrans) refers to global_variable.o(.bss) for struApp2Core
    app2core.o(i.App2CoreVdcTrans) refers to global_variable.o(.bss) for struApp2Core
    app2core.o(i.App2CoreVolTrans) refers to global_variable.o(.bss) for struApp2Core
    app2core.o(i.Core2AppAngleTrans) refers to global_variable.o(.bss) for struCore2App
    app2core.o(i.Core2AppCurTrans) refers to global_variable.o(.bss) for struCore2App
    app2core.o(i.Core2AppFreqTrans) refers to global_variable.o(.bss) for struCore2App
    app2core.o(i.Core2AppVdcTrans) refers to global_variable.o(.bss) for struCore2App
    app2core.o(i.Core2AppVolTrans) refers to global_variable.o(.bss) for struCore2App
    app2core.o(i.User2AppAngleTrans) refers to fflti.o(.text) for __aeabi_ui2f
    app2core.o(i.User2AppAngleTrans) refers to fmul.o(x$fpl$fmul) for __aeabi_fmul
    app2core.o(i.User2AppAngleTrans) refers to ffixi.o(.text) for __aeabi_f2iz
    app2core.o(i.User2AppAngleTrans) refers to global_variable.o(.bss) for struUser2App
    app2core.o(i.User2AppCurTrans) refers to fflti.o(.text) for __aeabi_ui2f
    app2core.o(i.User2AppCurTrans) refers to fmul.o(x$fpl$fmul) for __aeabi_fmul
    app2core.o(i.User2AppCurTrans) refers to ffixi.o(.text) for __aeabi_f2iz
    app2core.o(i.User2AppCurTrans) refers to global_variable.o(.bss) for struUser2App
    app2core.o(i.User2AppFreqTrans) refers to fflti.o(.text) for __aeabi_ui2f
    app2core.o(i.User2AppFreqTrans) refers to fmul.o(x$fpl$fmul) for __aeabi_fmul
    app2core.o(i.User2AppFreqTrans) refers to ffixi.o(.text) for __aeabi_f2iz
    app2core.o(i.User2AppFreqTrans) refers to global_variable.o(.bss) for struUser2App
    app2core.o(i.User2AppVolTrans) refers to f2d.o(.text) for __aeabi_f2d
    app2core.o(i.User2AppVolTrans) refers to dmul.o(.text) for __aeabi_dmul
    app2core.o(i.User2AppVolTrans) refers to ddiv.o(.text) for __aeabi_ddiv
    app2core.o(i.User2AppVolTrans) refers to dfixi.o(.text) for __aeabi_d2iz
    foc_drive.o(i.AdcSampleCal) refers to signalchain_sample.o(i.SVPWM_2ShuntGetPhaseCurrent) for SVPWM_2ShuntGetPhaseCurrent
    foc_drive.o(i.AdcSampleCal) refers to mc_math.o(i.CurrentMagCalc) for CurrentMagCalc
    foc_drive.o(i.AdcSampleCal) refers to global_variable.o(.bss) for struFluxOB_Param
    foc_drive.o(i.AdcSampleCal) refers to foc_drive.o(.data) for .data
    foc_drive.o(i.CurrentLoopReg) refers to pid_regulators.o(i.CurrentPIRegulator) for CurrentPIRegulator
    foc_drive.o(i.CurrentLoopReg) refers to fluxobserve.o(i.ModuCircle_Limitation) for ModuCircle_Limitation
    foc_drive.o(i.CurrentLoopReg) refers to foc_drive.o(.data) for .data
    foc_drive.o(i.FOC_InitstruParam) refers to global_variable.o(.constdata) for struFOC_ConstParam
    foc_drive.o(i.FOC_InitstruParam) refers to global_variable.o(.bss) for struFOC_CurrLoop
    foc_drive.o(i.FOC_InitstruParam) refers to global_variable.o(.bss) for struFluxOB_Param
    foc_drive.o(i.FOC_InitstruParam) refers to signalchain_sample.o(i.MCPWM0_RegUpdate) for MCPWM0_RegUpdate
    foc_drive.o(i.FOC_Model) refers to foc_drive.o(i.AdcSampleCal) for AdcSampleCal
    foc_drive.o(i.FOC_Model) refers to foc_drive.o(i.CurrentLoopReg) for CurrentLoopReg
    foc_drive.o(i.FOC_Model) refers to lib_svpwm.o(i.SVPWM_2ShuntGEN) for SVPWM_2ShuntGEN
    foc_drive.o(i.FOC_Model) refers to fluxobserve.o(i.PmsmFluxObserve) for PmsmFluxObserve
    foc_drive.o(i.FOC_Model) refers to fluxobserve.o(i.OpenCloseAngleSwitch) for OpenCloseAngleSwitch
    foc_drive.o(i.FOC_Model) refers to mc_math.o(i.Trig_Functions) for Trig_Functions
    foc_drive.o(i.FOC_Model) refers to global_variable.o(.bss) for struFOC_CurrLoop
    foc_drive.o(i.FOC_Model) refers to global_variable.o(.bss) for struFluxOB_Param
    foc_drive.o(i.SpeedLoopReg) refers to pid_regulators.o(i.SpeedPIRegulator) for SpeedPIRegulator
    foc_drive.o(i.SpeedLoopReg) refers to global_variable.o(.bss) for struFOC_CurrLoop
    signalchain_sample.o(i.ADC_NormalModeCFG) refers to user_app.o(.bss) for UserSys
    signalchain_sample.o(i.MCPWM0_RegUpdate) refers to user_app.o(.bss) for UserSys
    signalchain_sample.o(i.MCPWM0_RegUpdate) refers to global_variable.o(.bss) for struFOC_CurrLoop
    signalchain_sample.o(i.SVPWM_2ShuntGetPhaseCurrent) refers to rt_memcpy.o(.text) for __aeabi_memcpy
    pid_regulators.o(i.SpeedPIRegulator) refers to llmul.o(.text) for __aeabi_lmul
    mc_hall.o(i.Angle_Init_Process) refers to lib_mc_hall.o(i.closeLoopAnglePLLInit) for closeLoopAnglePLLInit
    mc_hall.o(i.Angle_Init_Process) refers to aeabi_sdiv.o(.text) for __aeabi_uidivmod
    mc_hall.o(i.Angle_Init_Process) refers to lib_mc_hall.o(i.calc_first_ElectAngle) for calc_first_ElectAngle
    mc_hall.o(i.GetAvrgHallPeriod) refers to aeabi_sdiv.o(.text) for __aeabi_uidivmod
    mc_hall.o(i.HALL_IRQProcess) refers to lib_mc_hall.o(i.check_hall_state) for check_hall_state
    mc_hall.o(i.HALL_IRQProcess) refers to mc_hall.o(i.GetAvrgHallPeriod) for GetAvrgHallPeriod
    mc_hall.o(i.HALL_IRQProcess) refers to mc_hall.o(i.HALL_Init_Electrical_Angle) for HALL_Init_Electrical_Angle
    mc_hall.o(i.HALL_InitHallMeasure) refers to mc_hall.o(i.HALL_Init_Electrical_Angle) for HALL_Init_Electrical_Angle
    mc_hall.o(i.HALL_InitHallMeasure) refers to mc_hall.o(i.hall_comm_VariableInit) for hall_comm_VariableInit
    mc_hall.o(i.HALL_InitHallMeasure) refers to mc_hall.o(.constdata) for .constdata
    mc_hall.o(i.HALL_Init_Electrical_Angle) refers to lib_mc_hall.o(i.GetHall_edgeAngle) for GetHall_edgeAngle
    mc_hall.o(i.HALL_Init_Electrical_Angle) refers to mc_hall.o(i.Angle_Init_Process) for Angle_Init_Process
    mc_hall.o(i.HALL_Init_Electrical_Angle) refers to lib_svpwm.o(i.lowPass_filter) for lowPass_filter
    mc_hall.o(i.HALL_Init_Electrical_Angle) refers to dflti.o(.text) for __aeabi_ui2d
    mc_hall.o(i.HALL_Init_Electrical_Angle) refers to dmul.o(.text) for __aeabi_dmul
    mc_hall.o(i.HALL_Init_Electrical_Angle) refers to d2f.o(.text) for __aeabi_d2f
    mc_hall.o(i.HALL_Init_Electrical_Angle) refers to app2core.o(i.User2AppFreqTrans) for User2AppFreqTrans
    mc_hall.o(i.HALL_Init_Electrical_Angle) refers to app2core.o(i.App2CoreFreqTrans) for App2CoreFreqTrans
    mc_hall.o(i.Hall_ElecAnglePWM_Process) refers to lib_mc_hall.o(i.closeLoopAnglePLL) for closeLoopAnglePLL
    mc_hall.o(i.Hall_ElecAnglePWM_Process) refers to lib_mc_hall.o(i.reduceToqueAnglePll) for reduceToqueAnglePll
    mc_hall.o(i.Hall_learn_Process) refers to app2core.o(i.User2AppCurTrans) for User2AppCurTrans
    mc_hall.o(i.Hall_learn_Process) refers to app2core.o(i.App2CoreCurTrans) for App2CoreCurTrans
    mc_hall.o(i.Hall_learn_Process) refers to lib_mc_hall.o(i.learn_hall_proc) for learn_hall_proc
    mc_hall.o(i.Hall_learn_Process) refers to global_variable.o(.bss) for struHallProcess
    mc_hall.o(i.Hall_learn_Process) refers to global_variable.o(.bss) for struFOC_CurrLoop
    mc_hall.o(i.Hall_learn_Process) refers to global_variable.o(.bss) for struFOC_CtrProc
    mc_hall.o(i.Verify_Hall_State) refers to mc_hall.o(i.GetAvrgHallPeriod) for GetAvrgHallPeriod
    mc_hall.o(i.Verify_Hall_State) refers to mc_hall.o(i.HALL_Init_Electrical_Angle) for HALL_Init_Electrical_Angle
    mc_hall.o(i.Verify_Hall_State) refers to lib_mc_hall.o(i.check_hall_state) for check_hall_state
    segger_rtt.o(i.SEGGER_RTT_AllocDownBuffer) refers to segger_rtt.o(i._DoInit) for _DoInit
    segger_rtt.o(i.SEGGER_RTT_AllocDownBuffer) refers to segger_rtt.o(.bss) for .bss
    segger_rtt.o(i.SEGGER_RTT_AllocUpBuffer) refers to segger_rtt.o(i._DoInit) for _DoInit
    segger_rtt.o(i.SEGGER_RTT_AllocUpBuffer) refers to segger_rtt.o(.bss) for .bss
    segger_rtt.o(i.SEGGER_RTT_ConfigDownBuffer) refers to segger_rtt.o(i._DoInit) for _DoInit
    segger_rtt.o(i.SEGGER_RTT_ConfigDownBuffer) refers to segger_rtt.o(.bss) for .bss
    segger_rtt.o(i.SEGGER_RTT_ConfigUpBuffer) refers to segger_rtt.o(i._DoInit) for _DoInit
    segger_rtt.o(i.SEGGER_RTT_ConfigUpBuffer) refers to segger_rtt.o(.bss) for .bss
    segger_rtt.o(i.SEGGER_RTT_GetKey) refers to segger_rtt.o(i.SEGGER_RTT_Read) for SEGGER_RTT_Read
    segger_rtt.o(i.SEGGER_RTT_HasData) refers to segger_rtt.o(.bss) for .bss
    segger_rtt.o(i.SEGGER_RTT_HasKey) refers to segger_rtt.o(i._DoInit) for _DoInit
    segger_rtt.o(i.SEGGER_RTT_HasKey) refers to segger_rtt.o(.bss) for .bss
    segger_rtt.o(i.SEGGER_RTT_Init) refers to segger_rtt.o(i._DoInit) for _DoInit
    segger_rtt.o(i.SEGGER_RTT_PutChar) refers to segger_rtt.o(i._DoInit) for _DoInit
    segger_rtt.o(i.SEGGER_RTT_PutChar) refers to segger_rtt.o(.bss) for .bss
    segger_rtt.o(i.SEGGER_RTT_PutCharSkip) refers to segger_rtt.o(i._DoInit) for _DoInit
    segger_rtt.o(i.SEGGER_RTT_PutCharSkip) refers to segger_rtt.o(.bss) for .bss
    segger_rtt.o(i.SEGGER_RTT_PutCharSkipNoLock) refers to segger_rtt.o(.bss) for .bss
    segger_rtt.o(i.SEGGER_RTT_Read) refers to segger_rtt.o(i.SEGGER_RTT_ReadNoLock) for SEGGER_RTT_ReadNoLock
    segger_rtt.o(i.SEGGER_RTT_ReadNoLock) refers to segger_rtt.o(i._DoInit) for _DoInit
    segger_rtt.o(i.SEGGER_RTT_ReadNoLock) refers to rt_memcpy.o(.text) for __aeabi_memcpy
    segger_rtt.o(i.SEGGER_RTT_ReadNoLock) refers to segger_rtt.o(.bss) for .bss
    segger_rtt.o(i.SEGGER_RTT_SetFlagsDownBuffer) refers to segger_rtt.o(i._DoInit) for _DoInit
    segger_rtt.o(i.SEGGER_RTT_SetFlagsDownBuffer) refers to segger_rtt.o(.bss) for .bss
    segger_rtt.o(i.SEGGER_RTT_SetFlagsUpBuffer) refers to segger_rtt.o(i._DoInit) for _DoInit
    segger_rtt.o(i.SEGGER_RTT_SetFlagsUpBuffer) refers to segger_rtt.o(.bss) for .bss
    segger_rtt.o(i.SEGGER_RTT_SetNameDownBuffer) refers to segger_rtt.o(i._DoInit) for _DoInit
    segger_rtt.o(i.SEGGER_RTT_SetNameDownBuffer) refers to segger_rtt.o(.bss) for .bss
    segger_rtt.o(i.SEGGER_RTT_SetNameUpBuffer) refers to segger_rtt.o(i._DoInit) for _DoInit
    segger_rtt.o(i.SEGGER_RTT_SetNameUpBuffer) refers to segger_rtt.o(.bss) for .bss
    segger_rtt.o(i.SEGGER_RTT_SetTerminal) refers to segger_rtt.o(i._DoInit) for _DoInit
    segger_rtt.o(i.SEGGER_RTT_SetTerminal) refers to segger_rtt.o(i._GetAvailWriteSpace) for _GetAvailWriteSpace
    segger_rtt.o(i.SEGGER_RTT_SetTerminal) refers to segger_rtt.o(i._WriteNoCheck) for _WriteNoCheck
    segger_rtt.o(i.SEGGER_RTT_SetTerminal) refers to segger_rtt.o(i._WriteBlocking) for _WriteBlocking
    segger_rtt.o(i.SEGGER_RTT_SetTerminal) refers to segger_rtt.o(.bss) for .bss
    segger_rtt.o(i.SEGGER_RTT_SetTerminal) refers to segger_rtt.o(.data) for .data
    segger_rtt.o(i.SEGGER_RTT_TerminalOut) refers to segger_rtt.o(i._DoInit) for _DoInit
    segger_rtt.o(i.SEGGER_RTT_TerminalOut) refers to strlen.o(.text) for strlen
    segger_rtt.o(i.SEGGER_RTT_TerminalOut) refers to segger_rtt.o(i._GetAvailWriteSpace) for _GetAvailWriteSpace
    segger_rtt.o(i.SEGGER_RTT_TerminalOut) refers to segger_rtt.o(i._PostTerminalSwitch) for _PostTerminalSwitch
    segger_rtt.o(i.SEGGER_RTT_TerminalOut) refers to segger_rtt.o(i._WriteBlocking) for _WriteBlocking
    segger_rtt.o(i.SEGGER_RTT_TerminalOut) refers to segger_rtt.o(.bss) for .bss
    segger_rtt.o(i.SEGGER_RTT_TerminalOut) refers to segger_rtt.o(.data) for .data
    segger_rtt.o(i.SEGGER_RTT_WaitKey) refers to segger_rtt.o(i.SEGGER_RTT_GetKey) for SEGGER_RTT_GetKey
    segger_rtt.o(i.SEGGER_RTT_Write) refers to segger_rtt.o(i._DoInit) for _DoInit
    segger_rtt.o(i.SEGGER_RTT_Write) refers to segger_rtt.o(i.SEGGER_RTT_WriteNoLock) for SEGGER_RTT_WriteNoLock
    segger_rtt.o(i.SEGGER_RTT_Write) refers to segger_rtt.o(.bss) for .bss
    segger_rtt.o(i.SEGGER_RTT_WriteNoLock) refers to segger_rtt.o(i._GetAvailWriteSpace) for _GetAvailWriteSpace
    segger_rtt.o(i.SEGGER_RTT_WriteNoLock) refers to segger_rtt.o(i._WriteNoCheck) for _WriteNoCheck
    segger_rtt.o(i.SEGGER_RTT_WriteNoLock) refers to segger_rtt.o(i._WriteBlocking) for _WriteBlocking
    segger_rtt.o(i.SEGGER_RTT_WriteNoLock) refers to segger_rtt.o(.bss) for .bss
    segger_rtt.o(i.SEGGER_RTT_WriteSkipNoLock) refers to rt_memcpy.o(.text) for __aeabi_memcpy
    segger_rtt.o(i.SEGGER_RTT_WriteSkipNoLock) refers to segger_rtt.o(.bss) for .bss
    segger_rtt.o(i.SEGGER_RTT_WriteString) refers to strlen.o(.text) for strlen
    segger_rtt.o(i.SEGGER_RTT_WriteString) refers to segger_rtt.o(i.SEGGER_RTT_Write) for SEGGER_RTT_Write
    segger_rtt.o(i.SEGGER_RTT_WriteWithOverwriteNoLock) refers to rt_memcpy.o(.text) for __aeabi_memcpy
    segger_rtt.o(i.SEGGER_RTT_WriteWithOverwriteNoLock) refers to segger_rtt.o(.bss) for .bss
    segger_rtt.o(i._DoInit) refers to strcpy.o(.text) for strcpy
    segger_rtt.o(i._DoInit) refers to segger_rtt.o(.bss) for .bss
    segger_rtt.o(i._PostTerminalSwitch) refers to segger_rtt.o(i._WriteBlocking) for _WriteBlocking
    segger_rtt.o(i._PostTerminalSwitch) refers to segger_rtt.o(.data) for .data
    segger_rtt.o(i._WriteBlocking) refers to rt_memcpy.o(.text) for __aeabi_memcpy
    segger_rtt.o(i._WriteNoCheck) refers to rt_memcpy.o(.text) for __aeabi_memcpy
    segger_rtt_printf.o(i.SEGGER_RTT_printf) refers to segger_rtt_printf.o(i.SEGGER_RTT_vprintf) for SEGGER_RTT_vprintf
    segger_rtt_printf.o(i.SEGGER_RTT_vprintf) refers to segger_rtt_printf.o(i._StoreChar) for _StoreChar
    segger_rtt_printf.o(i.SEGGER_RTT_vprintf) refers to segger_rtt.o(i.SEGGER_RTT_Write) for SEGGER_RTT_Write
    segger_rtt_printf.o(i.SEGGER_RTT_vprintf) refers to segger_rtt_printf.o(i._PrintInt) for _PrintInt
    segger_rtt_printf.o(i.SEGGER_RTT_vprintf) refers to segger_rtt_printf.o(i._PrintUnsigned) for _PrintUnsigned
    segger_rtt_printf.o(i._PrintInt) refers to aeabi_sdiv.o(.text) for __aeabi_idivmod
    segger_rtt_printf.o(i._PrintInt) refers to segger_rtt_printf.o(i._StoreChar) for _StoreChar
    segger_rtt_printf.o(i._PrintInt) refers to segger_rtt_printf.o(i._PrintUnsigned) for _PrintUnsigned
    segger_rtt_printf.o(i._PrintUnsigned) refers to aeabi_sdiv.o(.text) for __aeabi_uidivmod
    segger_rtt_printf.o(i._PrintUnsigned) refers to segger_rtt_printf.o(i._StoreChar) for _StoreChar
    segger_rtt_printf.o(i._PrintUnsigned) refers to segger_rtt_printf.o(.constdata) for .constdata
    segger_rtt_printf.o(i._StoreChar) refers to segger_rtt.o(i.SEGGER_RTT_Write) for SEGGER_RTT_Write
    lks32mc03x_adc.o(i.ADC_Init) refers to lks32mc03x_sys.o(i.SYS_AnalogModuleClockCmd) for SYS_AnalogModuleClockCmd
    lks32mc03x_cmp.o(i.CMP_Init) refers to lks32mc03x_sys.o(i.SYS_ModuleClockCmd) for SYS_ModuleClockCmd
    lks32mc03x_dma.o(i.DMA_StructInit) refers to rt_memclr.o(.text) for __aeabi_memclr4
    lks32mc03x_flash.o(i.Nvr_UserRoomErase) refers to lks32mc03x_flash.o(i.EraseSector) for EraseSector
    lks32mc03x_flash.o(i.Nvr_UserRoomErase) refers to lks32mc03x_flash.o(.data) for .data
    lks32mc03x_flash.o(i.Nvr_UserRoomWrite) refers to lks32mc03x_flash.o(i.ProgramPage) for ProgramPage
    lks32mc03x_flash.o(i.Nvr_UserRoomWrite) refers to lks32mc03x_flash.o(.data) for .data
    lks32mc03x_flash.o(i.SYS_VolSelModule) refers to lks32mc03x_nvr.o(i.Read_Trim) for Read_Trim
    lks32mc03x_flash.o(i.SYS_VolSelModule) refers to lks32mc03x_flash.o(i.GetRchTrimVal) for GetRchTrimVal
    lks32mc03x_gpio.o(i.EXTI_Trigger_Config) refers to state_machine.o(i.__ARM_common_switch8) for __ARM_common_switch8
    lks32mc03x_gpio.o(i.GPIO_PinAFConfig) refers to state_machine.o(i.__ARM_common_switch8) for __ARM_common_switch8
    lks32mc03x_hall.o(i.HALL_Init) refers to lks32mc03x_sys.o(i.SYS_ModuleClockCmd) for SYS_ModuleClockCmd
    lks32mc03x_i2c.o(i.I2C_Init) refers to lks32mc03x_sys.o(i.SYS_ModuleClockCmd) for SYS_ModuleClockCmd
    lks32mc03x_i2c.o(i.I2C_Init) refers to lks32mc03x_sys.o(i.SYS_SoftResetModule) for SYS_SoftResetModule
    lks32mc03x_i2c.o(i.I2C_Init) refers to aeabi_sdiv.o(.text) for __aeabi_uidivmod
    lks32mc03x_i2c.o(i.I2C_Init) refers to lks32mc03x_i2c.o(i.i2c_dma_init) for i2c_dma_init
    lks32mc03x_i2c.o(i.i2c_dma_delay_over) refers to lks32mc03x_i2c.o(.data) for .data
    lks32mc03x_i2c.o(i.i2c_dma_init) refers to lks32mc03x_dma.o(i.DMA_Init) for DMA_Init
    lks32mc03x_i2c.o(i.i2c_dma_init) refers to lks32mc03x_dma.o(i.DMA_CHx_EN) for DMA_CHx_EN
    lks32mc03x_i2c.o(i.i2c_dma_rx) refers to lks32mc03x_i2c.o(i.i2c_dma_delay_over) for i2c_dma_delay_over
    lks32mc03x_i2c.o(i.i2c_dma_rx) refers to lks32mc03x_i2c.o(i.i2c_dma_state_start) for i2c_dma_state_start
    lks32mc03x_i2c.o(i.i2c_dma_state_over) refers to lks32mc03x_i2c.o(.data) for .data
    lks32mc03x_i2c.o(i.i2c_dma_state_start) refers to lks32mc03x_i2c.o(.data) for .data
    lks32mc03x_i2c.o(i.i2c_dma_tx) refers to lks32mc03x_i2c.o(i.i2c_dma_delay_over) for i2c_dma_delay_over
    lks32mc03x_i2c.o(i.i2c_dma_tx) refers to lks32mc03x_i2c.o(i.i2c_dma_state_start) for i2c_dma_state_start
    lks32mc03x_mcpwm.o(i.MCPWM_Init) refers to lks32mc03x_sys.o(i.SYS_ModuleClockCmd) for SYS_ModuleClockCmd
    lks32mc03x_mcpwm.o(i.MCPWM_StructInit) refers to rt_memclr.o(.text) for __aeabi_memclr
    lks32mc03x_spi.o(i.SPI_Init) refers to lks32mc03x_sys.o(i.SYS_ModuleClockCmd) for SYS_ModuleClockCmd
    lks32mc03x_timer.o(i.TIM_TimerInit) refers to lks32mc03x_sys.o(i.SYS_ModuleClockCmd) for SYS_ModuleClockCmd
    lks32mc03x_uart.o(i.UART_Init) refers to lks32mc03x_sys.o(i.SYS_ModuleClockCmd) for SYS_ModuleClockCmd
    lks32mc03x_uart.o(i.UART_Init) refers to aeabi_sdiv.o(.text) for __aeabi_uidivmod
    startup_lks32mc03x.o(STACK) refers (Special) to heapauxi.o(.text) for __use_two_region_memory
    startup_lks32mc03x.o(HEAP) refers (Special) to heapauxi.o(.text) for __use_two_region_memory
    startup_lks32mc03x.o(RESET) refers (Special) to heapauxi.o(.text) for __use_two_region_memory
    startup_lks32mc03x.o(RESET) refers to startup_lks32mc03x.o(STACK) for __initial_sp
    startup_lks32mc03x.o(RESET) refers to startup_lks32mc03x.o(.text) for Reset_Handler
    startup_lks32mc03x.o(RESET) refers to interrupt.o(i.SysTick_Handler) for SysTick_Handler
    startup_lks32mc03x.o(RESET) refers to interrupt.o(i.TIMER0_IRQHandler) for TIMER0_IRQHandler
    startup_lks32mc03x.o(RESET) refers to interrupt.o(i.TIMER1_IRQHandler) for TIMER1_IRQHandler
    startup_lks32mc03x.o(RESET) refers to interrupt.o(i.MCPWM0_IRQHandler) for MCPWM0_IRQHandler
    startup_lks32mc03x.o(RESET) refers to interrupt.o(i.MCPWM1_IRQHandler) for MCPWM1_IRQHandler
    startup_lks32mc03x.o(RESET) refers to interrupt.o(i.I2C_IRQHandler) for I2C_IRQHandler
    startup_lks32mc03x.o(RESET) refers to interrupt.o(i.SPI_IRQHandler) for SPI_IRQHandler
    startup_lks32mc03x.o(RESET) refers to interrupt.o(i.GPIO_IRQHandler) for GPIO_IRQHandler
    startup_lks32mc03x.o(RESET) refers to interrupt.o(i.HALL_IRQHandler) for HALL_IRQHandler
    startup_lks32mc03x.o(RESET) refers to interrupt.o(i.UART_IRQHandler) for UART_IRQHandler
    startup_lks32mc03x.o(RESET) refers to interrupt.o(i.CMP_IRQHandler) for CMP_IRQHandler
    startup_lks32mc03x.o(RESET) refers to interrupt.o(i.ADC_IRQHandler) for ADC_IRQHandler
    startup_lks32mc03x.o(RESET) refers to interrupt.o(i.DMA_IRQHandler) for DMA_IRQHandler
    startup_lks32mc03x.o(RESET) refers to interrupt.o(i.WAKE_IRQHandler) for WAKE_IRQHandler
    startup_lks32mc03x.o(RESET) refers to interrupt.o(i.SW_IRQHandler) for SW_IRQHandler
    startup_lks32mc03x.o(.text) refers (Special) to heapauxi.o(.text) for __use_two_region_memory
    startup_lks32mc03x.o(.text) refers to startup_lks32mc03x.o(STACK) for __initial_sp
    startup_lks32mc03x.o(.text) refers to hardware_init.o(i.SystemInit) for SystemInit
    startup_lks32mc03x.o(.text) refers to __main.o(!!!main) for __main
    startup_lks32mc03x.o(.text) refers to startup_lks32mc03x.o(HEAP) for Heap_Mem
    user_app.o(i.Btn1_Dowm_CallBack) refers to user_app.o(.data) for .data
    user_app.o(i.EraseWriteFlash) refers to lks32mc03x_flash.o(i.EraseSector) for EraseSector
    user_app.o(i.EraseWriteFlash) refers to lks32mc03x_flash.o(i.ProgramPage) for ProgramPage
    user_app.o(i.EraseWriteFlash) refers to user_app.o(.data) for .data
    user_app.o(i.EraseWriteFlash) refers to global_variable.o(.bss) for struFOC_CtrProc
    user_app.o(i.FunStateCharge) refers to user_app.o(.bss) for .bss
    user_app.o(i.FunStateCharge) refers to user_app.o(.data) for .data
    user_app.o(i.FunStateCharge) refers to fault_detection.o(.data) for stru_Faults
    user_app.o(i.GetHeartNTCTemp) refers to user_app.o(.data) for .data
    user_app.o(i.GetVdcSpeed) refers to app2core.o(i.User2AppFreqTrans) for User2AppFreqTrans
    user_app.o(i.GetVdcSpeed) refers to app2core.o(i.App2CoreFreqTrans) for App2CoreFreqTrans
    user_app.o(i.GetVdcSpeed) refers to global_variable.o(.bss) for struFOC_CurrLoop
    user_app.o(i.GetVdcSpeed) refers to user_app.o(.data) for .data
    user_app.o(i.GetVdcSpeed) refers to user_app.o(.bss) for .bss
    user_app.o(i.Get_Power) refers to powercalculation.o(i.PowerCalc) for PowerCalc
    user_app.o(i.Get_Power) refers to powercalculation.o(.bss) for struPower
    user_app.o(i.Get_Power) refers to global_variable.o(.bss) for struFOC_CurrLoop
    user_app.o(i.Get_tempreture_num) refers to dflti.o(.text) for __aeabi_i2d
    user_app.o(i.Get_tempreture_num) refers to ddiv.o(.text) for __aeabi_ddiv
    user_app.o(i.Get_tempreture_num) refers to dmul.o(.text) for __aeabi_dmul
    user_app.o(i.Get_tempreture_num) refers to d2f.o(.text) for __aeabi_d2f
    user_app.o(i.Get_tempreture_num) refers to fdiv.o(.text) for __aeabi_fdiv
    user_app.o(i.Get_tempreture_num) refers to f2d.o(.text) for __aeabi_f2d
    user_app.o(i.Get_tempreture_num) refers to daddsub.o(.text) for __aeabi_dsub
    user_app.o(i.Get_tempreture_num) refers to heatcontrol.o(.bss) for FRSControl
    user_app.o(i.Key_Speed) refers to lks32mc03x_gpio.o(i.GPIO_ReadInputDataBit) for GPIO_ReadInputDataBit
    user_app.o(i.Key_Speed) refers to user_app.o(.data) for .data
    user_app.o(i.LCD_Process) refers to user_app.o(i.Temp_demarcate) for Temp_demarcate
    user_app.o(i.LCD_Process) refers to lcd.o(i.IIC_Write_Reg) for IIC_Write_Reg
    user_app.o(i.LCD_Process) refers to lcd.o(i.lcd_show_temp_gear) for lcd_show_temp_gear
    user_app.o(i.LCD_Process) refers to lcd.o(i.lcd_show_all_number) for lcd_show_all_number
    user_app.o(i.LCD_Process) refers to lcd.o(i.lcd_show_speed) for lcd_show_speed
    user_app.o(i.LCD_Process) refers to lcd.o(i.lcd_show_constant_temperature) for lcd_show_constant_temperature
    user_app.o(i.LCD_Process) refers to lcd.o(i.lcd_show_all_data) for lcd_show_all_data
    user_app.o(i.LCD_Process) refers to heatcontrol.o(.bss) for FRSControl
    user_app.o(i.LCD_Process) refers to user_app.o(.data) for .data
    user_app.o(i.MemoryRestore) refers to user_app.o(.data) for .data
    user_app.o(i.NTC_R_change) refers to f2d.o(.text) for __aeabi_f2d
    user_app.o(i.NTC_R_change) refers to daddsub.o(.text) for __aeabi_drsub
    user_app.o(i.NTC_R_change) refers to ddiv.o(.text) for __aeabi_ddiv
    user_app.o(i.NTC_R_change) refers to dmul.o(.text) for __aeabi_dmul
    user_app.o(i.NTC_R_change) refers to d2f.o(.text) for __aeabi_d2f
    user_app.o(i.NTC_R_change) refers to ffixi.o(.text) for __aeabi_f2iz
    user_app.o(i.NTC_R_change) refers to user_app.o(.data) for .data
    user_app.o(i.NTC_R_change) refers to heatcontrol.o(.bss) for FRSControl
    user_app.o(i.Temp_circulation) refers to user_app.o(.data) for .data
    user_app.o(i.Temp_demarcate) refers to f2d.o(.text) for __aeabi_f2d
    user_app.o(i.Temp_demarcate) refers to daddsub.o(.text) for __aeabi_dsub
    user_app.o(i.Temp_demarcate) refers to dmul.o(.text) for __aeabi_dmul
    user_app.o(i.Temp_demarcate) refers to dfixi.o(.text) for __aeabi_d2iz
    user_app.o(i.Temp_demarcate) refers to ffixi.o(.text) for __aeabi_f2iz
    user_app.o(i.Temp_demarcate) refers to user_app.o(.data) for .data
    user_app.o(i.Temp_demarcate) refers to heatcontrol.o(.bss) for FRSControl
    user_app.o(i.USER_APP_vTick10ms) refers to user_app.o(i.Get_Power) for Get_Power
    user_app.o(i.USER_APP_vTick10ms) refers to user_app.o(i.FunStateCharge) for FunStateCharge
    user_app.o(i.USER_APP_vTick10ms) refers to user_app.o(i.Get_tempreture_num) for Get_tempreture_num
    user_app.o(i.USER_APP_vTick10ms) refers to user_app.o(i.NTC_R_change) for NTC_R_change
    user_app.o(i.USER_APP_vTick10ms) refers to user_app.o(i.GetHeartNTCTemp) for GetHeartNTCTemp
    user_app.o(i.USER_APP_vTick10ms) refers to heatcontrol.o(.bss) for FRSControl
    user_app.o(i.USER_APP_vTick10ms) refers to user_app.o(.data) for .data
    user_app.o(i.USER_APP_vTick10ms) refers to user_app.o(.bss) for .bss
    user_app.o(i.USER_APP_vTick1ms) refers to user_app.o(i.Key_Speed) for Key_Speed
    user_app.o(i.USER_APP_vTick1ms) refers to heatcontrol.o(i.HeaterControl_1ms) for HeaterControl_1ms
    user_app.o(i.USER_APP_vTick1ms) refers to user_app.o(i.EraseWriteFlash) for EraseWriteFlash
    user_app.o(i.USER_APP_vTick20ms) refers to button.o(i.Button_Process) for Button_Process
    user_app.o(i.USER_APP_vTick20ms) refers to user_app.o(i.LCD_Process) for LCD_Process
    user_app.o(i.USER_APP_vTick500ms) refers to user_app.o(.data) for .data
    user_app.o(i.USER_APP_vTick500ms) refers to heatcontrol.o(.bss) for FRSControl
    user_app.o(i.USER_GPIO_Init) refers to lks32mc03x_gpio.o(i.GPIO_StructInit) for GPIO_StructInit
    user_app.o(i.USER_GPIO_Init) refers to lks32mc03x_gpio.o(i.GPIO_Init) for GPIO_Init
    user_app.o(i.USER_GPIO_Init) refers to lks32mc03x_gpio.o(i.GPIO_SetBits) for GPIO_SetBits
    user_app.o(i.USER_GPIO_Init) refers to lks32mc03x_gpio.o(i.GPIO_PinAFConfig) for GPIO_PinAFConfig
    user_app.o(i.USER_Init) refers to lcd.o(i.lcd_init) for lcd_init
    user_app.o(i.USER_Init) refers to button.o(i.Button_Create) for Button_Create
    user_app.o(i.USER_Init) refers to button.o(i.Button_Attach) for Button_Attach
    user_app.o(i.USER_Init) refers to user_app.o(i.MemoryRestore) for MemoryRestore
    user_app.o(i.USER_Init) refers to user_app.o(.bss) for .bss
    user_app.o(i.USER_Init) refers to fault_detection.o(.bss) for stru_FaultValue
    user_app.o(i.USER_Init) refers to user_app.o(i.read_btn1_level) for read_btn1_level
    user_app.o(i.USER_Init) refers to user_app.o(i.Btn1_Dowm_CallBack) for Btn1_Dowm_CallBack
    user_app.o(i.USER_Init) refers to user_app.o(.data) for .data
    user_app.o(i.read_btn1_level) refers to lks32mc03x_gpio.o(i.GPIO_ReadInputDataBit) for GPIO_ReadInputDataBit
    user_app.o(i.vLoadForFlashing) refers to user_app.o(.data) for .data
    lcd.o(i.IIC_Write_Reg) refers to lks32mc03x_i2c.o(i.i2c_dma_tx) for i2c_dma_tx
    lcd.o(i.IIC_Write_Reg) refers to lcd.o(.data) for .data
    lcd.o(i.lcd_init) refers to lcd.o(i.IIC_Write_Reg) for IIC_Write_Reg
    lcd.o(i.lcd_init) refers to lcd.o(i.lcd_show_all_clean) for lcd_show_all_clean
    lcd.o(i.lcd_init) refers to lcd.o(.data) for .data
    lcd.o(i.lcd_show_all_clean) refers to lcd.o(i.IIC_Write_Reg) for IIC_Write_Reg
    lcd.o(i.lcd_show_all_clean) refers to lcd.o(.data) for .data
    lcd.o(i.lcd_show_all_data) refers to lcd.o(i.IIC_Write_Reg) for IIC_Write_Reg
    lcd.o(i.lcd_show_all_data) refers to lcd.o(.data) for .data
    lcd.o(i.lcd_show_all_number) refers to aeabi_sdiv.o(.text) for __aeabi_idivmod
    lcd.o(i.lcd_show_all_number) refers to lcd.o(i.lcd_show_ones) for lcd_show_ones
    lcd.o(i.lcd_show_all_number) refers to lcd.o(.data) for .data
    lcd.o(i.lcd_show_constant_temperature) refers to lcd.o(.data) for .data
    lcd.o(i.lcd_show_ones) refers to lcd.o(.constdata) for .constdata
    lcd.o(i.lcd_show_speed) refers to lcd.o(.data) for .data
    lcd.o(i.lcd_show_temp_gear) refers to lcd.o(.data) for .data
    lcd.o(i.lcd_show_temp_gear) refers to user_app.o(.data) for AutoTemp_gear
    button.o(i.Add_Button) refers to button.o(.data) for .data
    button.o(i.Button_Create) refers to rt_memclr.o(.text) for __aeabi_memclr4
    button.o(i.Button_Create) refers to button.o(i.StrnCopy) for StrnCopy
    button.o(i.Button_Create) refers to button.o(i.Add_Button) for Add_Button
    button.o(i.Button_Create) refers to button.o(i.Print_Btn_Info) for Print_Btn_Info
    button.o(i.Button_Delete) refers to button.o(.data) for .data
    button.o(i.Button_Process) refers to button.o(i.Button_Cycle_Process) for Button_Cycle_Process
    button.o(i.Button_Process) refers to button.o(.data) for .data
    button.o(i.Button_Process_CallBack) refers to button.o(i.Get_Button_Event) for Get_Button_Event
    button.o(i.Print_Btn_Info) refers to button.o(i.Search_Button) for Search_Button
    button.o(i.Search_Button) refers to button.o(.data) for .data
    lib_svpwm.o(i.Calc_Atan) refers to lib_svpwm.o(.constdata) for .constdata
    lib_svpwm.o(i.SVPWM_1ShuntGEN) refers to state_machine.o(i.__ARM_common_switch8) for __ARM_common_switch8
    lib_svpwm.o(i.SVPWM_3ShuntGEN) refers to state_machine.o(i.__ARM_common_switch8) for __ARM_common_switch8
    fluxobserve.o(i.AutoFieldWeakReg) refers to fluxobserve.o(i.FWLoopPIReg) for FWLoopPIReg
    fluxobserve.o(i.AutoFieldWeakReg) refers to fluxobserve.o(.data) for .data
    fluxobserve.o(i.AutoFieldWeakReg) refers to fluxobserve.o(.bss) for .bss
    fluxobserve.o(i.AutoFieldWeakReg) refers to global_variable.o(.bss) for struFOC_CurrLoop
    fluxobserve.o(i.DcVoltPerUnitCalc) refers to global_variable.o(.bss) for struMotorSpeed
    fluxobserve.o(i.DcVoltPerUnitCalc) refers to fluxobserve.o(.data) for .data
    fluxobserve.o(i.DcVoltPerUnitCalc) refers to global_variable.o(.bss) for struFluxOB_Param
    fluxobserve.o(i.DcVoltPerUnitCalc) refers to fluxobserve.o(.bss) for .bss
    fluxobserve.o(i.DcVoltPerUnitCalcInt) refers to global_variable.o(.bss) for struFluxOB_Param
    fluxobserve.o(i.DcVoltPerUnitCalcInt) refers to fluxobserve.o(.data) for .data
    fluxobserve.o(i.DcVoltPerUnitCalcInt) refers to fluxobserve.o(.bss) for .bss
    fluxobserve.o(i.DcVoltPerUnitCalcInt) refers to global_variable.o(.bss) for struFOC_CurrLoop
    fluxobserve.o(i.FluxObserveParaCalc) refers to fflti.o(.text) for __aeabi_i2f
    fluxobserve.o(i.FluxObserveParaCalc) refers to fmul.o(x$fpl$fmul) for __aeabi_fmul
    fluxobserve.o(i.FluxObserveParaCalc) refers to fdiv.o(.text) for __aeabi_fdiv
    fluxobserve.o(i.FluxObserveParaCalc) refers to ffixi.o(.text) for __aeabi_f2iz
    fluxobserve.o(i.FluxObserveParaCalc) refers to aeabi_sdiv.o(.text) for __aeabi_idivmod
    fluxobserve.o(i.FluxObserveParaCalc) refers to llsdiv.o(.text) for __aeabi_ldivmod
    fluxobserve.o(i.FluxObserveParaCalc) refers to fluxobserve.o(i.__ARM_common_ll_mulss) for __ARM_common_ll_mulss
    fluxobserve.o(i.FluxObserveParaCalc) refers to llshl.o(.text) for __aeabi_llsl
    fluxobserve.o(i.FluxObserveParaCalc) refers to llmul.o(.text) for __aeabi_lmul
    fluxobserve.o(i.FluxObserveParaCalc) refers to dflti.o(.text) for __aeabi_ui2d
    fluxobserve.o(i.FluxObserveParaCalc) refers to fluxobserve.o(i.__ARM_common_ll_muluu) for __ARM_common_ll_muluu
    fluxobserve.o(i.FluxObserveParaCalc) refers to dfltl.o(.text) for __aeabi_l2d
    fluxobserve.o(i.FluxObserveParaCalc) refers to dmul.o(.text) for __aeabi_dmul
    fluxobserve.o(i.FluxObserveParaCalc) refers to ddiv.o(.text) for __aeabi_ddiv
    fluxobserve.o(i.FluxObserveParaCalc) refers to dfixui.o(.text) for __aeabi_d2uiz
    fluxobserve.o(i.FluxObserveParaCalc) refers to global_variable.o(.bss) for struFluxOB_Param
    fluxobserve.o(i.FluxObserveParaCalc) refers to fluxobserve.o(.bss) for .bss
    fluxobserve.o(i.FluxObserveParaCalc) refers to fluxobserve.o(.data) for .data
    fluxobserve.o(i.FluxObserveParaCalc) refers to global_variable.o(.bss) for mOnTheFlyDetect
    fluxobserve.o(i.FluxObserveParaCalc) refers to global_variable.o(.bss) for struUser2App
    fluxobserve.o(i.FluxObserveParaCalc) refers to fluxobserve.o(i.FindQNum) for FindQNum
    fluxobserve.o(i.FluxObserveParaCalc) refers to global_variable.o(.bss) for struCore2App
    fluxobserve.o(i.FluxObserveParaCalc) refers to global_variable.o(.bss) for struApp2Core
    fluxobserve.o(i.Flux_OBS_ParaInit) refers to fluxobserve.o(.bss) for .bss
    fluxobserve.o(i.Flux_OBS_ParaInit) refers to fluxobserve.o(.data) for .data
    fluxobserve.o(i.ModuCircle_Limitation) refers to mc_math.o(i.Trig_Functions) for Trig_Functions
    fluxobserve.o(i.ModuCircle_Limitation) refers to global_variable.o(.bss) for struFOC_CurrLoop
    fluxobserve.o(i.ModuCircle_Limitation) refers to fluxobserve.o(.data) for .data
    fluxobserve.o(i.ModuCircle_Limitation) refers to global_variable.o(.bss) for mOnTheFlyDetect
    fluxobserve.o(i.ModuCircle_Limitation) refers to global_variable.o(.bss) for struFluxOB_Param
    fluxobserve.o(i.OnTheFlyDetectInit) refers to global_variable.o(.bss) for mOnTheFlyDetect
    fluxobserve.o(i.OpenCloseAngleSwitch) refers to global_variable.o(.bss) for struFOC_CtrProc
    fluxobserve.o(i.OpenCloseAngleSwitch) refers to global_variable.o(.bss) for struMotorSpeed
    fluxobserve.o(i.OpenCloseAngleSwitch) refers to global_variable.o(.bss) for struFluxOB_Param
    fluxobserve.o(i.OpenCloseAngleSwitch) refers to fluxobserve.o(.bss) for .bss
    fluxobserve.o(i.OpenCloseAngleSwitch) refers to fluxobserve.o(.data) for .data
    fluxobserve.o(i.PmsmFluxObIni) refers to fluxobserve.o(i.Flux_OBS_ParaInit) for Flux_OBS_ParaInit
    fluxobserve.o(i.PmsmFluxObIni) refers to fluxobserve.o(.data) for .data
    fluxobserve.o(i.PmsmFluxObIni) refers to fluxobserve.o(.bss) for .bss
    fluxobserve.o(i.PmsmFluxObIni) refers to global_variable.o(.bss) for struFOC_CurrLoop
    fluxobserve.o(i.PmsmFluxObIni) refers to global_variable.o(.bss) for struFluxOB_Param
    fluxobserve.o(i.PmsmFluxObIni) refers to global_variable.o(.bss) for struMotorSpeed
    fluxobserve.o(i.PmsmFluxObserve) refers to fluxobserve.o(.data) for .data
    fluxobserve.o(i.PmsmFluxObserve) refers to fluxobserve.o(.bss) for .bss
    fluxobserve.o(i.PmsmFluxObserve) refers to global_variable.o(.bss) for struFOC_CurrLoop
    fluxobserve.o(i.PmsmFluxObserve) refers to global_variable.o(.bss) for struMotorSpeed
    fluxobserve.o(i.PmsmFluxObserve) refers to global_variable.o(.bss) for struFluxOB_Param
    lib_ipd.o(i.IPD_AngleCalc) refers to lib_ipd.o(i.FindMaxIn3) for FindMaxIn3
    lib_ipd.o(i.IPD_AngleCalc) refers to lib_svpwm.o(i.Calc_Atan) for Calc_Atan
    lib_ipd.o(i.IPD_AngleCalc) refers to global_variable.o(.bss) for mIPD_CtrProc
    lib_ipd.o(i.IPD_RotorPosEst) refers to lib_ipd.o(i.VolPulsePwmSet) for VolPulsePwmSet
    lib_ipd.o(i.IPD_RotorPosEst) refers to lks32mc03x_mcpwm.o(i.PWMOutputs) for PWMOutputs
    lib_ipd.o(i.IPD_RotorPosEst) refers to lib_ipd.o(i.soft_Trg_ADC) for soft_Trg_ADC
    lib_ipd.o(i.IPD_RotorPosEst) refers to foc_drive.o(i.AdcSampleCal) for AdcSampleCal
    lib_ipd.o(i.IPD_RotorPosEst) refers to lib_ipd.o(i.PoloEstCurSample) for PoloEstCurSample
    lib_ipd.o(i.IPD_RotorPosEst) refers to lib_ipd.o(i.IPD_AngleCalc) for IPD_AngleCalc
    lib_ipd.o(i.IPD_RotorPosEst) refers to global_variable.o(.bss) for struFOC_CurrLoop
    lib_ipd.o(i.IPD_RotorPosEst) refers to global_variable.o(.bss) for mIPD_CtrProc
    lib_ipd.o(i.PoloEstCurSample) refers to state_machine.o(i.__ARM_common_switch8) for __ARM_common_switch8
    lib_ipd.o(i.PoloEstCurSample) refers to global_variable.o(.bss) for mIPD_CtrProc
    lib_ipd.o(i.PoloEstCurSample) refers to global_variable.o(.bss) for struFOC_CurrLoop
    lib_ipd.o(i.VolPulsePwmSet) refers to state_machine.o(i.__ARM_common_switch8) for __ARM_common_switch8
    lib_ipd.o(i.VolPulsePwmSet) refers to global_variable.o(.bss) for mIPD_CtrProc
    lib_ipd.o(i.VolPulsePwmSet) refers to global_variable.o(.bss) for struFOC_CurrLoop
    onthefly.o(i.Bemf_Angle_Process) refers to lib_svpwm.o(i.Calc_Atan) for Calc_Atan
    onthefly.o(i.Bemf_Angle_Process) refers to app2core.o(i.App2CoreFreqTrans) for App2CoreFreqTrans
    onthefly.o(i.Bemf_Angle_Process) refers to fluxobserve.o(i.ModuCircle_Limitation) for ModuCircle_Limitation
    onthefly.o(i.Bemf_Angle_Process) refers to lib_svpwm.o(i.SVPWM_2ShuntGEN) for SVPWM_2ShuntGEN
    onthefly.o(i.Bemf_Angle_Process) refers to mc_math.o(i.Trig_Functions) for Trig_Functions
    onthefly.o(i.Bemf_Angle_Process) refers to onthefly.o(.data) for .data
    onthefly.o(i.Bemf_Angle_Process) refers to global_variable.o(.bss) for struFluxOB_Param
    onthefly.o(i.Bemf_Angle_Process) refers to fluxobserve.o(.data) for uPWM1msTick
    onthefly.o(i.Bemf_Angle_Process) refers to global_variable.o(.bss) for struFOC_CurrLoop
    onthefly.o(i.Bemf_Angle_Process) refers to fluxobserve.o(.bss) for struFluxOB_Var
    onthefly.o(i.Bemf_Angle_Process) refers to global_variable.o(.bss) for mOnTheFlyDetect
    onthefly.o(i.BrakeStateCheck) refers to global_variable.o(.bss) for struFOC_CurrLoop
    onthefly.o(i.BrakeStateCheck) refers to onthefly.o(.data) for .data
    onthefly.o(i.BrakeStateCheck) refers to global_variable.o(.bss) for mOnTheFlyDetect
    onthefly.o(i.OnTheFlyDetectPro) refers to lks32mc03x_mcpwm.o(i.PWMOutputs) for PWMOutputs
    onthefly.o(i.OnTheFlyDetectPro) refers to fluxobserve.o(i.ModuCircle_Limitation) for ModuCircle_Limitation
    onthefly.o(i.OnTheFlyDetectPro) refers to lib_svpwm.o(i.SVPWM_2ShuntGEN) for SVPWM_2ShuntGEN
    onthefly.o(i.OnTheFlyDetectPro) refers to mc_math.o(i.Trig_Functions) for Trig_Functions
    onthefly.o(i.OnTheFlyDetectPro) refers to onthefly.o(i.Bemf_Angle_Process) for Bemf_Angle_Process
    onthefly.o(i.OnTheFlyDetectPro) refers to fluxobserve.o(i.PmsmFluxObIni) for PmsmFluxObIni
    onthefly.o(i.OnTheFlyDetectPro) refers to state_machine.o(.data) for g_uDirCheckStep
    onthefly.o(i.OnTheFlyDetectPro) refers to onthefly.o(.data) for .data
    onthefly.o(i.OnTheFlyDetectPro) refers to global_variable.o(.bss) for struFOC_CurrLoop
    onthefly.o(i.OnTheFlyDetectPro) refers to global_variable.o(.bss) for struFluxOB_Param
    onthefly.o(i.OnTheFlyDetectPro) refers to fluxobserve.o(.data) for gThetaComp
    onthefly.o(i.OnTheFlyDetectPro) refers to fluxobserve.o(.bss) for m_FluxOBSPara
    onthefly.o(i.OnTheFlyDetectPro) refers to global_variable.o(.bss) for mOnTheFlyDetect
    onthefly.o(i.OnTheFlyDetectPro1) refers to global_variable.o(.bss) for mOnTheFlyDetect
    onthefly.o(i.OnTheFlyDetectPro1) refers to onthefly.o(.data) for .data
    onthefly.o(i.OnTheFlyDetectPro1) refers to global_variable.o(.bss) for struMotorSpeed
    onthefly.o(i.OnTheFlyDetectPro1) refers to fluxobserve.o(.data) for gBemfPerUnitGain
    lib_mc_hall.o(i.GetHall_edgeAngle) refers to lib_mc_hall.o(.data) for .data
    lib_mc_hall.o(i.check_hall_state) refers to aeabi_sdiv.o(.text) for __aeabi_uidivmod
    lib_mc_hall.o(i.check_hall_state) refers to lib_mc_hall.o(i.hall_repare_process) for hall_repare_process
    lib_mc_hall.o(i.closeLoopAnglePLLInit) refers to aeabi_sdiv.o(.text) for __aeabi_uidivmod
    lib_mc_hall.o(i.closeLoopAnglePLLInit) refers to lib_svpwm.o(i.lowPass_filter) for lowPass_filter
    lib_mc_hall.o(i.hallErrorCheck) refers to lib_mc_hall.o(.data) for .data
    lib_mc_hall.o(i.hall_repare_process) refers to aeabi_sdiv.o(.text) for __aeabi_uidivmod
    lib_mc_hall.o(i.learn_hall_proc) refers to foc_drive.o(i.StopMotorImmdly) for StopMotorImmdly
    lib_mc_hall.o(i.learn_hall_proc) refers to aeabi_sdiv.o(.text) for __aeabi_uidivmod
    lib_mc_hall.o(i.learn_hall_proc) refers to lib_mc_hall.o(.data) for .data
    llsdiv.o(.text) refers to lludiv.o(.text) for __aeabi_uldivmod
    rt_memcpy.o(.text) refers to rt_memcpy.o(.emb_text) for __aeabi_memcpy4
    __main.o(!!!main) refers to __rtentry.o(.ARM.Collect$$rtentry$$00000000) for __rt_entry
    d2f.o(.text) refers (Special) to usenofp.o(x$fpl$usenofp) for __I$use$fp
    daddsub.o(.text) refers (Special) to usenofp.o(x$fpl$usenofp) for __I$use$fp
    ddiv.o(.text) refers (Special) to usenofp.o(x$fpl$usenofp) for __I$use$fp
    ddiv.o(.text) refers to ddiv.o(.constdata) for .constdata
    ddiv.o(.constdata) refers (Special) to usenofp.o(x$fpl$usenofp) for __I$use$fp
    dfixi.o(.text) refers (Special) to usenofp.o(x$fpl$usenofp) for __I$use$fp
    dfixui.o(.text) refers (Special) to usenofp.o(x$fpl$usenofp) for __I$use$fp
    dflti.o(.text) refers (Special) to usenofp.o(x$fpl$usenofp) for __I$use$fp
    dfltl.o(.text) refers (Special) to usenofp.o(x$fpl$usenofp) for __I$use$fp
    dmul.o(.text) refers (Special) to usenofp.o(x$fpl$usenofp) for __I$use$fp
    f2d.o(.text) refers (Special) to usenofp.o(x$fpl$usenofp) for __I$use$fp
    fdiv.o(.text) refers (Special) to usenofp.o(x$fpl$usenofp) for __I$use$fp
    fdiv.o(.text) refers to fdiv.o(.constdata) for .constdata
    fdiv.o(.constdata) refers (Special) to usenofp.o(x$fpl$usenofp) for __I$use$fp
    ffixi.o(.text) refers (Special) to usenofp.o(x$fpl$usenofp) for __I$use$fp
    fflti.o(.text) refers (Special) to usenofp.o(x$fpl$usenofp) for __I$use$fp
    fmul.o(x$fpl$fmul) refers (Special) to usenofp.o(x$fpl$usenofp) for __I$use$fp
    __rtentry.o(.ARM.Collect$$rtentry$$00000000) refers (Special) to __rtentry2.o(.ARM.Collect$$rtentry$$0000000A) for __rt_entry_li
    __rtentry.o(.ARM.Collect$$rtentry$$00000000) refers (Special) to __rtentry2.o(.ARM.Collect$$rtentry$$0000000D) for __rt_entry_main
    __rtentry.o(.ARM.Collect$$rtentry$$00000000) refers (Special) to __rtentry2.o(.ARM.Collect$$rtentry$$0000000C) for __rt_entry_postli_1
    __rtentry.o(.ARM.Collect$$rtentry$$00000000) refers (Special) to __rtentry2.o(.ARM.Collect$$rtentry$$00000009) for __rt_entry_postsh_1
    __rtentry.o(.ARM.Collect$$rtentry$$00000000) refers (Special) to __rtentry2.o(.ARM.Collect$$rtentry$$00000002) for __rt_entry_presh_1
    __rtentry.o(.ARM.Collect$$rtentry$$00000000) refers (Special) to __rtentry4.o(.ARM.Collect$$rtentry$$00000004) for __rt_entry_sh
    aeabi_idiv0_sigfpe.o(.text) refers to rt_div0.o(.text) for __rt_div0
    __rtentry2.o(.ARM.Collect$$rtentry$$00000008) refers to boardinit2.o(.text) for _platform_post_stackheap_init
    __rtentry2.o(.ARM.Collect$$rtentry$$0000000A) refers to libinit.o(.ARM.Collect$$libinit$$00000000) for __rt_lib_init
    __rtentry2.o(.ARM.Collect$$rtentry$$0000000B) refers to boardinit3.o(.text) for _platform_post_lib_init
    __rtentry2.o(.ARM.Collect$$rtentry$$0000000D) refers to main.o(i.main) for main
    __rtentry2.o(.ARM.Collect$$rtentry$$0000000D) refers to exit.o(.text) for exit
    __rtentry2.o(.ARM.exidx) refers to __rtentry2.o(.ARM.Collect$$rtentry$$00000001) for .ARM.Collect$$rtentry$$00000001
    __rtentry2.o(.ARM.exidx) refers to __rtentry2.o(.ARM.Collect$$rtentry$$00000008) for .ARM.Collect$$rtentry$$00000008
    __rtentry2.o(.ARM.exidx) refers to __rtentry2.o(.ARM.Collect$$rtentry$$0000000A) for .ARM.Collect$$rtentry$$0000000A
    __rtentry2.o(.ARM.exidx) refers to __rtentry2.o(.ARM.Collect$$rtentry$$0000000B) for .ARM.Collect$$rtentry$$0000000B
    __rtentry2.o(.ARM.exidx) refers to __rtentry2.o(.ARM.Collect$$rtentry$$0000000D) for .ARM.Collect$$rtentry$$0000000D
    __rtentry4.o(.ARM.Collect$$rtentry$$00000004) refers to sys_stackheap_outer.o(.text) for __user_setup_stackheap
    __rtentry4.o(.ARM.exidx) refers to __rtentry4.o(.ARM.Collect$$rtentry$$00000004) for .ARM.Collect$$rtentry$$00000004
    rt_div0.o(.text) refers to defsig_fpe_outer.o(.text) for __rt_SIGFPE
    aeabi_ldiv0_sigfpe.o(.text) refers to rt_div0.o(.text) for __rt_div0
    sys_stackheap_outer.o(.text) refers to libspace.o(.text) for __user_perproc_libspace
    sys_stackheap_outer.o(.text) refers to startup_lks32mc03x.o(.text) for __user_initial_stackheap
    sys_stackheap_outer.o(__vectab_stack_and_reset_area) refers to tempstk.o(.text) for __temporary_stack_top
    sys_stackheap_outer.o(__vectab_stack_and_reset_area) refers to __main.o(!!!main) for __main
    exit.o(.text) refers to rtexit.o(.ARM.Collect$$rtexit$$00000000) for __rt_exit
    defsig_fpe_outer.o(.text) refers to defsig_fpe_inner.o(.text) for __rt_SIGFPE_inner
    defsig_fpe_outer.o(.text) refers to defsig_exit.o(.text) for __sig_exit
    defsig_fpe_formal.o(.text) refers to rt_raise.o(.text) for __rt_raise
    libinit.o(.ARM.Collect$$libinit$$00000000) refers (Special) to libinit2.o(.ARM.Collect$$libinit$$0000002E) for __rt_lib_init_alloca_1
    libinit.o(.ARM.Collect$$libinit$$00000000) refers (Special) to libinit2.o(.ARM.Collect$$libinit$$0000002C) for __rt_lib_init_argv_1
    libinit.o(.ARM.Collect$$libinit$$00000000) refers (Special) to libinit2.o(.ARM.Collect$$libinit$$0000001B) for __rt_lib_init_atexit_1
    libinit.o(.ARM.Collect$$libinit$$00000000) refers (Special) to libinit2.o(.ARM.Collect$$libinit$$00000021) for __rt_lib_init_clock_1
    libinit.o(.ARM.Collect$$libinit$$00000000) refers (Special) to libinit2.o(.ARM.Collect$$libinit$$00000032) for __rt_lib_init_cpp_1
    libinit.o(.ARM.Collect$$libinit$$00000000) refers (Special) to libinit2.o(.ARM.Collect$$libinit$$00000030) for __rt_lib_init_exceptions_1
    libinit.o(.ARM.Collect$$libinit$$00000000) refers (Special) to libinit2.o(.ARM.Collect$$libinit$$00000002) for __rt_lib_init_fp_1
    libinit.o(.ARM.Collect$$libinit$$00000000) refers (Special) to libinit2.o(.ARM.Collect$$libinit$$0000001F) for __rt_lib_init_fp_trap_1
    libinit.o(.ARM.Collect$$libinit$$00000000) refers (Special) to libinit2.o(.ARM.Collect$$libinit$$00000023) for __rt_lib_init_getenv_1
    libinit.o(.ARM.Collect$$libinit$$00000000) refers (Special) to libinit2.o(.ARM.Collect$$libinit$$0000000A) for __rt_lib_init_heap_1
    libinit.o(.ARM.Collect$$libinit$$00000000) refers (Special) to libinit2.o(.ARM.Collect$$libinit$$00000011) for __rt_lib_init_lc_collate_1
    libinit.o(.ARM.Collect$$libinit$$00000000) refers (Special) to libinit2.o(.ARM.Collect$$libinit$$00000013) for __rt_lib_init_lc_ctype_1
    libinit.o(.ARM.Collect$$libinit$$00000000) refers (Special) to libinit2.o(.ARM.Collect$$libinit$$00000015) for __rt_lib_init_lc_monetary_1
    libinit.o(.ARM.Collect$$libinit$$00000000) refers (Special) to libinit2.o(.ARM.Collect$$libinit$$00000017) for __rt_lib_init_lc_numeric_1
    libinit.o(.ARM.Collect$$libinit$$00000000) refers (Special) to libinit2.o(.ARM.Collect$$libinit$$00000019) for __rt_lib_init_lc_time_1
    libinit.o(.ARM.Collect$$libinit$$00000000) refers (Special) to libinit2.o(.ARM.Collect$$libinit$$00000004) for __rt_lib_init_preinit_1
    libinit.o(.ARM.Collect$$libinit$$00000000) refers (Special) to libinit2.o(.ARM.Collect$$libinit$$0000000E) for __rt_lib_init_rand_1
    libinit.o(.ARM.Collect$$libinit$$00000000) refers (Special) to libinit2.o(.ARM.Collect$$libinit$$00000033) for __rt_lib_init_return
    libinit.o(.ARM.Collect$$libinit$$00000000) refers (Special) to libinit2.o(.ARM.Collect$$libinit$$0000001D) for __rt_lib_init_signal_1
    libinit.o(.ARM.Collect$$libinit$$00000000) refers (Special) to libinit2.o(.ARM.Collect$$libinit$$00000025) for __rt_lib_init_stdio_1
    libinit.o(.ARM.Collect$$libinit$$00000000) refers (Special) to libinit2.o(.ARM.Collect$$libinit$$0000000C) for __rt_lib_init_user_alloc_1
    libspace.o(.text) refers to libspace.o(.bss) for __libspace_start
    rtexit.o(.ARM.Collect$$rtexit$$00000000) refers (Special) to rtexit2.o(.ARM.Collect$$rtexit$$00000004) for __rt_exit_exit
    rtexit.o(.ARM.Collect$$rtexit$$00000000) refers (Special) to rtexit2.o(.ARM.Collect$$rtexit$$00000003) for __rt_exit_ls
    rtexit.o(.ARM.Collect$$rtexit$$00000000) refers (Special) to rtexit2.o(.ARM.Collect$$rtexit$$00000002) for __rt_exit_prels_1
    rtexit.o(.ARM.exidx) refers (Special) to rtexit2.o(.ARM.Collect$$rtexit$$00000004) for __rt_exit_exit
    rtexit.o(.ARM.exidx) refers (Special) to rtexit2.o(.ARM.Collect$$rtexit$$00000003) for __rt_exit_ls
    rtexit.o(.ARM.exidx) refers (Special) to rtexit2.o(.ARM.Collect$$rtexit$$00000002) for __rt_exit_prels_1
    rtexit.o(.ARM.exidx) refers to rtexit.o(.ARM.Collect$$rtexit$$00000000) for .ARM.Collect$$rtexit$$00000000
    rt_raise.o(.text) refers to __raise.o(.text) for __raise
    rt_raise.o(.text) refers to sys_exit.o(.text) for _sys_exit
    defsig_exit.o(.text) refers to sys_exit.o(.text) for _sys_exit
    defsig_fpe_inner.o(.text) refers to defsig_general.o(.text) for __default_signal_display
    libinit2.o(.ARM.Collect$$libinit$$00000010) refers to libinit2.o(.ARM.Collect$$libinit$$0000000F) for .ARM.Collect$$libinit$$0000000F
    libinit2.o(.ARM.Collect$$libinit$$00000012) refers to libinit2.o(.ARM.Collect$$libinit$$0000000F) for .ARM.Collect$$libinit$$0000000F
    libinit2.o(.ARM.Collect$$libinit$$00000014) refers to libinit2.o(.ARM.Collect$$libinit$$0000000F) for .ARM.Collect$$libinit$$0000000F
    libinit2.o(.ARM.Collect$$libinit$$00000016) refers to libinit2.o(.ARM.Collect$$libinit$$0000000F) for .ARM.Collect$$libinit$$0000000F
    libinit2.o(.ARM.Collect$$libinit$$00000018) refers to libinit2.o(.ARM.Collect$$libinit$$0000000F) for .ARM.Collect$$libinit$$0000000F
    libinit2.o(.ARM.Collect$$libinit$$00000026) refers to argv_veneer.o(.text) for __ARM_argv_veneer
    libinit2.o(.ARM.Collect$$libinit$$00000027) refers to argv_veneer.o(.text) for __ARM_argv_veneer
    sys_exit.o(.text) refers (Special) to use_no_semi.o(.text) for __I$use$semihosting
    sys_exit.o(.text) refers (Special) to indicate_semi.o(.text) for __semihosting_library_function
    rtexit2.o(.ARM.Collect$$rtexit$$00000003) refers to libshutdown.o(.ARM.Collect$$libshutdown$$00000000) for __rt_lib_shutdown
    rtexit2.o(.ARM.Collect$$rtexit$$00000004) refers to sys_exit.o(.text) for _sys_exit
    rtexit2.o(.ARM.exidx) refers to rtexit2.o(.ARM.Collect$$rtexit$$00000001) for .ARM.Collect$$rtexit$$00000001
    rtexit2.o(.ARM.exidx) refers to rtexit2.o(.ARM.Collect$$rtexit$$00000003) for .ARM.Collect$$rtexit$$00000003
    rtexit2.o(.ARM.exidx) refers to rtexit2.o(.ARM.Collect$$rtexit$$00000004) for .ARM.Collect$$rtexit$$00000004
    __raise.o(.text) refers to defsig.o(CL$$defsig) for __default_signal_handler
    defsig_general.o(.text) refers to sys_wrch.o(.text) for _ttywrch
    sys_wrch.o(.text) refers (Special) to use_no_semi.o(.text) for __I$use$semihosting
    sys_wrch.o(.text) refers (Special) to indicate_semi.o(.text) for __semihosting_library_function
    defsig.o(CL$$defsig) refers to defsig_fpe_inner.o(.text) for __rt_SIGFPE_inner
    defsig.o(CL$$defsig) refers to defsig_rtmem_inner.o(.text) for __rt_SIGRTMEM_inner
    _get_argv_nomalloc.o(.text) refers (Special) to hrguard.o(.text) for __heap_region$guard
    _get_argv_nomalloc.o(.text) refers to defsig_rtmem_outer.o(.text) for __rt_SIGRTMEM
    _get_argv_nomalloc.o(.text) refers to sys_command.o(.text) for _sys_command_string
    libshutdown.o(.ARM.Collect$$libshutdown$$00000000) refers (Special) to libshutdown2.o(.ARM.Collect$$libshutdown$$00000004) for __rt_lib_shutdown_cpp_1
    libshutdown.o(.ARM.Collect$$libshutdown$$00000000) refers (Special) to libshutdown2.o(.ARM.Collect$$libshutdown$$00000002) for __rt_lib_shutdown_fini_1
    libshutdown.o(.ARM.Collect$$libshutdown$$00000000) refers (Special) to libshutdown2.o(.ARM.Collect$$libshutdown$$00000009) for __rt_lib_shutdown_fp_trap_1
    libshutdown.o(.ARM.Collect$$libshutdown$$00000000) refers (Special) to libshutdown2.o(.ARM.Collect$$libshutdown$$00000011) for __rt_lib_shutdown_heap_1
    libshutdown.o(.ARM.Collect$$libshutdown$$00000000) refers (Special) to libshutdown2.o(.ARM.Collect$$libshutdown$$00000012) for __rt_lib_shutdown_return
    libshutdown.o(.ARM.Collect$$libshutdown$$00000000) refers (Special) to libshutdown2.o(.ARM.Collect$$libshutdown$$0000000C) for __rt_lib_shutdown_signal_1
    libshutdown.o(.ARM.Collect$$libshutdown$$00000000) refers (Special) to libshutdown2.o(.ARM.Collect$$libshutdown$$00000006) for __rt_lib_shutdown_stdio_1
    libshutdown.o(.ARM.Collect$$libshutdown$$00000000) refers (Special) to libshutdown2.o(.ARM.Collect$$libshutdown$$0000000E) for __rt_lib_shutdown_user_alloc_1
    sys_command.o(.text) refers (Special) to use_no_semi.o(.text) for __I$use$semihosting
    sys_command.o(.text) refers (Special) to indicate_semi.o(.text) for __semihosting_library_function
    defsig_abrt_inner.o(.text) refers to defsig_general.o(.text) for __default_signal_display
    defsig_rtred_inner.o(.text) refers to defsig_general.o(.text) for __default_signal_display
    defsig_rtmem_inner.o(.text) refers to defsig_general.o(.text) for __default_signal_display
    defsig_rtmem_outer.o(.text) refers to defsig_rtmem_inner.o(.text) for __rt_SIGRTMEM_inner
    defsig_rtmem_outer.o(.text) refers to defsig_exit.o(.text) for __sig_exit
    defsig_rtmem_formal.o(.text) refers to rt_raise.o(.text) for __rt_raise
    defsig_stak_inner.o(.text) refers to defsig_general.o(.text) for __default_signal_display
    defsig_pvfn_inner.o(.text) refers to defsig_general.o(.text) for __default_signal_display
    defsig_cppl_inner.o(.text) refers to defsig_general.o(.text) for __default_signal_display
    defsig_segv_inner.o(.text) refers to defsig_general.o(.text) for __default_signal_display
    defsig_other.o(.text) refers to defsig_general.o(.text) for __default_signal_display


==============================================================================

Removing Unused input sections from the image.

    Removing global_variable.o(.rev16_text), (4 bytes).
    Removing global_variable.o(.revsh_text), (4 bytes).
    Removing global_variable.o(.bss), (232 bytes).
    Removing global_variable.o(.bss), (28 bytes).
    Removing hardware_init.o(.rev16_text), (4 bytes).
    Removing hardware_init.o(.revsh_text), (4 bytes).
    Removing hardware_init.o(i.DebugPWM_OutputFunction), (36 bytes).
    Removing hardware_init.o(i.UART_SENDDATA), (12 bytes).
    Removing hardware_init.o(i.UART_init), (36 bytes).
    Removing hardware_init.o(i.seekPosADCsetting), (40 bytes).
    Removing interrupt.o(.rev16_text), (4 bytes).
    Removing interrupt.o(.revsh_text), (4 bytes).
    Removing interrupt.o(i.ENCODER0_IRQHandler), (2 bytes).
    Removing interrupt.o(i.ENCODER1_IRQHandler), (2 bytes).
    Removing interrupt.o(i.SleepTimer_IRQHandler), (2 bytes).
    Removing interrupt.o(i.UART1_IRQHandler), (2 bytes).
    Removing interrupt.o(.data), (1 bytes).
    Removing interrupt.o(.data), (2 bytes).
    Removing system_init.o(.rev16_text), (4 bytes).
    Removing system_init.o(.revsh_text), (4 bytes).
    Removing task_scheduler.o(.rev16_text), (4 bytes).
    Removing task_scheduler.o(.revsh_text), (4 bytes).
    Removing task_scheduler.o(.data), (8 bytes).
    Removing state_machine.o(.rev16_text), (4 bytes).
    Removing state_machine.o(.revsh_text), (4 bytes).
    Removing state_machine.o(i.MatchPICoef), (2 bytes).
    Removing state_machine.o(i.StateDirCheck), (232 bytes).
    Removing state_machine.o(i.StateDirCheckVacuum), (128 bytes).
    Removing state_machine.o(i.StateHallRun), (76 bytes).
    Removing state_machine.o(i.StatePosSeek), (124 bytes).
    Removing state_machine.o(.data), (1 bytes).
    Removing state_machine.o(.data), (2 bytes).
    Removing state_machine.o(.data), (4 bytes).
    Removing fault_detection.o(.rev16_text), (4 bytes).
    Removing fault_detection.o(.revsh_text), (4 bytes).
    Removing fault_detection.o(i.FaultBlockCheck), (180 bytes).
    Removing fault_detection.o(i.FaultEmptyCheck), (88 bytes).
    Removing fault_detection.o(.bss), (14 bytes).
    Removing fault_detection.o(.data), (2 bytes).
    Removing fault_detection.o(.data), (1 bytes).
    Removing fault_detection.o(.data), (2 bytes).
    Removing fault_detection.o(.data), (2 bytes).
    Removing process_control.o(.rev16_text), (4 bytes).
    Removing process_control.o(.revsh_text), (4 bytes).
    Removing process_control.o(i.GetCurrentTemperature), (2 bytes).
    Removing process_control.o(i.ReadLKS05X_UniqueID), (2 bytes).
    Removing powercalculation.o(.rev16_text), (4 bytes).
    Removing powercalculation.o(.revsh_text), (4 bytes).
    Removing powercalculation.o(i.PowerLimitCalc), (64 bytes).
    Removing powercalculation.o(i.PowerLoopInit), (140 bytes).
    Removing powercalculation.o(i.PowerLoopReg), (52 bytes).
    Removing powercalculation.o(i.PowerPIRegulator), (50 bytes).
    Removing powercalculation.o(i.RampControl), (50 bytes).
    Removing powercalculation.o(i.SpeedLimitCalc), (68 bytes).
    Removing powercalculation.o(.bss), (12 bytes).
    Removing speedscan.o(.rev16_text), (4 bytes).
    Removing speedscan.o(.revsh_text), (4 bytes).
    Removing speedscan.o(i.FGScan), (56 bytes).
    Removing speedscan.o(i.PWMDutyScan), (136 bytes).
    Removing speedscan.o(i.PWMScan), (96 bytes).
    Removing speedscan.o(i.PWMScanInit), (24 bytes).
    Removing speedscan.o(i.PWMSpeedScan), (148 bytes).
    Removing speedscan.o(i.VspSpeedScan), (148 bytes).
    Removing speedscan.o(.bss), (32 bytes).
    Removing heatcontrol.o(.rev16_text), (4 bytes).
    Removing heatcontrol.o(.revsh_text), (4 bytes).
    Removing heatcontrol.o(.data), (2 bytes).
    Removing heatcontrol.o(.data), (1 bytes).
    Removing heatcontrol.o(.data), (2 bytes).
    Removing heatcontrol.o(.data), (1 bytes).
    Removing heatcontrol.o(.data), (2 bytes).
    Removing heatcontrol.o(.data), (1 bytes).
    Removing main.o(.rev16_text), (4 bytes).
    Removing main.o(.revsh_text), (4 bytes).
    Removing mc_math.o(.rev16_text), (4 bytes).
    Removing mc_math.o(.revsh_text), (4 bytes).
    Removing mc_math.o(i.CopyFromBuffer), (22 bytes).
    Removing app2core.o(.rev16_text), (4 bytes).
    Removing app2core.o(.revsh_text), (4 bytes).
    Removing app2core.o(i.App2CoreAngleTrans), (20 bytes).
    Removing app2core.o(i.App2CoreVdcTrans), (16 bytes).
    Removing app2core.o(i.App2CoreVolTrans), (16 bytes).
    Removing app2core.o(i.Core2AppAngleTrans), (20 bytes).
    Removing app2core.o(i.Core2AppCurTrans), (16 bytes).
    Removing app2core.o(i.Core2AppFreqTrans), (16 bytes).
    Removing app2core.o(i.Core2AppVdcTrans), (16 bytes).
    Removing app2core.o(i.Core2AppVolTrans), (16 bytes).
    Removing foc_drive.o(.rev16_text), (4 bytes).
    Removing foc_drive.o(.revsh_text), (4 bytes).
    Removing foc_drive.o(i.StopMotorImmdly), (2 bytes).
    Removing foc_drive.o(.data), (2 bytes).
    Removing foc_drive.o(.data), (2 bytes).
    Removing signalchain_sample.o(.rev16_text), (4 bytes).
    Removing signalchain_sample.o(.revsh_text), (4 bytes).
    Removing signalchain_sample.o(i.ADC_NormalModeCFG1), (20 bytes).
    Removing pid_regulators.o(i.PI_Regulator), (110 bytes).
    Removing mc_hall.o(.rev16_text), (4 bytes).
    Removing mc_hall.o(.revsh_text), (4 bytes).
    Removing mc_hall.o(i.Angle_Init_Process), (152 bytes).
    Removing mc_hall.o(i.GetAvrgHallPeriod), (88 bytes).
    Removing mc_hall.o(i.HALL_IRQProcess), (264 bytes).
    Removing mc_hall.o(i.HALL_InitHallMeasure), (200 bytes).
    Removing mc_hall.o(i.HALL_Init_Electrical_Angle), (300 bytes).
    Removing mc_hall.o(i.Hall_ElecAnglePWM_Process), (98 bytes).
    Removing mc_hall.o(i.Hall_learn_Process), (128 bytes).
    Removing mc_hall.o(i.Verify_Hall_State), (364 bytes).
    Removing mc_hall.o(i.hall_comm_VariableInit), (284 bytes).
    Removing mc_hall.o(.constdata), (48 bytes).
    Removing segger_rtt.o(i.SEGGER_RTT_AllocDownBuffer), (100 bytes).
    Removing segger_rtt.o(i.SEGGER_RTT_AllocUpBuffer), (100 bytes).
    Removing segger_rtt.o(i.SEGGER_RTT_ConfigDownBuffer), (92 bytes).
    Removing segger_rtt.o(i.SEGGER_RTT_ConfigUpBuffer), (92 bytes).
    Removing segger_rtt.o(i.SEGGER_RTT_GetKey), (28 bytes).
    Removing segger_rtt.o(i.SEGGER_RTT_HasData), (20 bytes).
    Removing segger_rtt.o(i.SEGGER_RTT_HasKey), (36 bytes).
    Removing segger_rtt.o(i.SEGGER_RTT_Init), (8 bytes).
    Removing segger_rtt.o(i.SEGGER_RTT_PutChar), (92 bytes).
    Removing segger_rtt.o(i.SEGGER_RTT_PutCharSkip), (80 bytes).
    Removing segger_rtt.o(i.SEGGER_RTT_PutCharSkipNoLock), (52 bytes).
    Removing segger_rtt.o(i.SEGGER_RTT_Read), (24 bytes).
    Removing segger_rtt.o(i.SEGGER_RTT_ReadNoLock), (128 bytes).
    Removing segger_rtt.o(i.SEGGER_RTT_SetFlagsDownBuffer), (64 bytes).
    Removing segger_rtt.o(i.SEGGER_RTT_SetFlagsUpBuffer), (64 bytes).
    Removing segger_rtt.o(i.SEGGER_RTT_SetNameDownBuffer), (64 bytes).
    Removing segger_rtt.o(i.SEGGER_RTT_SetNameUpBuffer), (64 bytes).
    Removing segger_rtt.o(i.SEGGER_RTT_SetTerminal), (132 bytes).
    Removing segger_rtt.o(i.SEGGER_RTT_TerminalOut), (224 bytes).
    Removing segger_rtt.o(i.SEGGER_RTT_WaitKey), (12 bytes).
    Removing segger_rtt.o(i.SEGGER_RTT_Write), (52 bytes).
    Removing segger_rtt.o(i.SEGGER_RTT_WriteNoLock), (104 bytes).
    Removing segger_rtt.o(i.SEGGER_RTT_WriteSkipNoLock), (152 bytes).
    Removing segger_rtt.o(i.SEGGER_RTT_WriteString), (24 bytes).
    Removing segger_rtt.o(i.SEGGER_RTT_WriteWithOverwriteNoLock), (152 bytes).
    Removing segger_rtt.o(i._DoInit), (104 bytes).
    Removing segger_rtt.o(i._GetAvailWriteSpace), (24 bytes).
    Removing segger_rtt.o(i._PostTerminalSwitch), (28 bytes).
    Removing segger_rtt.o(i._WriteBlocking), (104 bytes).
    Removing segger_rtt.o(i._WriteNoCheck), (62 bytes).
    Removing segger_rtt.o(.bss), (202 bytes).
    Removing segger_rtt.o(.bss), (384 bytes).
    Removing segger_rtt.o(.data), (17 bytes).
    Removing segger_rtt_printf.o(i.SEGGER_RTT_printf), (24 bytes).
    Removing segger_rtt_printf.o(i.SEGGER_RTT_vprintf), (412 bytes).
    Removing segger_rtt_printf.o(i._PrintInt), (230 bytes).
    Removing segger_rtt_printf.o(i._PrintUnsigned), (232 bytes).
    Removing segger_rtt_printf.o(i._StoreChar), (62 bytes).
    Removing segger_rtt_printf.o(.constdata), (16 bytes).
    Removing lks32mc03x_adc.o(.rev16_text), (4 bytes).
    Removing lks32mc03x_adc.o(.revsh_text), (4 bytes).
    Removing lks32mc03x_cmp.o(.rev16_text), (4 bytes).
    Removing lks32mc03x_cmp.o(.revsh_text), (4 bytes).
    Removing lks32mc03x_dma.o(.rev16_text), (4 bytes).
    Removing lks32mc03x_dma.o(.revsh_text), (4 bytes).
    Removing lks32mc03x_dma.o(i.DMA_ClearIRQFlag), (12 bytes).
    Removing lks32mc03x_dma.o(i.DMA_GetIRQFlag), (28 bytes).
    Removing lks32mc03x_dma.o(i.DMA_StructInit), (10 bytes).
    Removing lks32mc03x_flash.o(.rev16_text), (4 bytes).
    Removing lks32mc03x_flash.o(.revsh_text), (4 bytes).
    Removing lks32mc03x_flash.o(i.GetRchTrimVal), (66 bytes).
    Removing lks32mc03x_flash.o(i.NVR_UserRoomRead), (52 bytes).
    Removing lks32mc03x_flash.o(i.Nvr_UserRoomErase), (44 bytes).
    Removing lks32mc03x_flash.o(i.Nvr_UserRoomWrite), (60 bytes).
    Removing lks32mc03x_flash.o(i.Read_Flash), (66 bytes).
    Removing lks32mc03x_flash.o(i.SYS_VolSelModule), (80 bytes).
    Removing lks32mc03x_flash.o(.data), (8 bytes).
    Removing lks32mc03x_gpio.o(.rev16_text), (4 bytes).
    Removing lks32mc03x_gpio.o(.revsh_text), (4 bytes).
    Removing lks32mc03x_gpio.o(i.EXTI_Trigger_Config), (324 bytes).
    Removing lks32mc03x_gpio.o(i.GPIO_ReadInputData), (4 bytes).
    Removing lks32mc03x_gpio.o(i.GPIO_ReadOutputData), (4 bytes).
    Removing lks32mc03x_gpio.o(i.GPIO_ReadOutputDataBit), (14 bytes).
    Removing lks32mc03x_gpio.o(i.GPIO_Write), (4 bytes).
    Removing lks32mc03x_gpio.o(i.GPIO_WriteBit), (12 bytes).
    Removing lks32mc03x_hall.o(.rev16_text), (4 bytes).
    Removing lks32mc03x_hall.o(.revsh_text), (4 bytes).
    Removing lks32mc03x_hall.o(i.HALL_Clear_IRQ), (20 bytes).
    Removing lks32mc03x_hall.o(i.HALL_GetCaptureValue), (16 bytes).
    Removing lks32mc03x_hall.o(i.HALL_GetCount), (12 bytes).
    Removing lks32mc03x_hall.o(i.HALL_GetFilterValue), (16 bytes).
    Removing lks32mc03x_hall.o(i.HALL_IsCaptureEvent), (16 bytes).
    Removing lks32mc03x_hall.o(i.HALL_IsOverFlowEvent), (16 bytes).
    Removing lks32mc03x_i2c.o(.rev16_text), (4 bytes).
    Removing lks32mc03x_i2c.o(.revsh_text), (4 bytes).
    Removing lks32mc03x_i2c.o(i.Clear_I2c_Bus_State), (16 bytes).
    Removing lks32mc03x_i2c.o(i.Read_I2c_Bus_State), (20 bytes).
    Removing lks32mc03x_i2c.o(i.i2c_dma_rx), (80 bytes).
    Removing lks32mc03x_iwdg.o(.rev16_text), (4 bytes).
    Removing lks32mc03x_iwdg.o(.revsh_text), (4 bytes).
    Removing lks32mc03x_iwdg.o(i.IWDG_DISABLE), (12 bytes).
    Removing lks32mc03x_iwdg.o(i.IWDG_Feed), (24 bytes).
    Removing lks32mc03x_iwdg.o(i.IWDG_Init), (60 bytes).
    Removing lks32mc03x_iwdg.o(i.IWDG_StrutInit), (18 bytes).
    Removing lks32mc03x_mcpwm.o(.rev16_text), (4 bytes).
    Removing lks32mc03x_mcpwm.o(.revsh_text), (4 bytes).
    Removing lks32mc03x_mcpwm.o(i.PWMOutputs_CH3), (48 bytes).
    Removing lks32mc03x_mcpwm.o(i.PWM_CH3_Outputs), (48 bytes).
    Removing lks32mc03x_spi.o(.rev16_text), (4 bytes).
    Removing lks32mc03x_spi.o(.revsh_text), (4 bytes).
    Removing lks32mc03x_spi.o(i.SPI_GetIRQFlag), (6 bytes).
    Removing lks32mc03x_spi.o(i.SPI_Init), (84 bytes).
    Removing lks32mc03x_spi.o(i.SPI_ReadData), (6 bytes).
    Removing lks32mc03x_spi.o(i.SPI_SendData), (4 bytes).
    Removing lks32mc03x_spi.o(i.SPI_StructInit), (30 bytes).
    Removing lks32mc03x_sys.o(.rev16_text), (4 bytes).
    Removing lks32mc03x_sys.o(.revsh_text), (4 bytes).
    Removing lks32mc03x_sys.o(i.SYS_ClearRst), (16 bytes).
    Removing lks32mc03x_sys.o(i.SYS_GetRstSource), (12 bytes).
    Removing lks32mc03x_sys.o(i.SYS_Init), (60 bytes).
    Removing lks32mc03x_sys.o(i.SYS_StructInit), (20 bytes).
    Removing lks32mc03x_timer.o(.rev16_text), (4 bytes).
    Removing lks32mc03x_timer.o(.revsh_text), (4 bytes).
    Removing lks32mc03x_uart.o(.rev16_text), (4 bytes).
    Removing lks32mc03x_uart.o(.revsh_text), (4 bytes).
    Removing lks32mc03x_uart.o(i.UART_ClearIRQFlag), (4 bytes).
    Removing lks32mc03x_uart.o(i.UART_GetIRQFlag), (4 bytes).
    Removing lks32mc03x_uart.o(i.UART_Init), (152 bytes).
    Removing lks32mc03x_uart.o(i.UART_ReadData), (4 bytes).
    Removing lks32mc03x_uart.o(i.UART_SendData), (4 bytes).
    Removing lks32mc03x_uart.o(i.UART_StructInit), (30 bytes).
    Removing user_app.o(.rev16_text), (4 bytes).
    Removing user_app.o(.revsh_text), (4 bytes).
    Removing user_app.o(i.USER_APP_vTick05ms), (2 bytes).
    Removing user_app.o(.data), (1 bytes).
    Removing user_app.o(.data), (1 bytes).
    Removing user_app.o(.data), (1 bytes).
    Removing user_app.o(.data), (2 bytes).
    Removing user_app.o(.data), (2 bytes).
    Removing user_app.o(.data), (2 bytes).
    Removing user_app.o(.data), (2 bytes).
    Removing user_app.o(.data), (2 bytes).
    Removing user_app.o(.data), (1 bytes).
    Removing user_app.o(.data), (1 bytes).
    Removing user_app.o(.data), (2 bytes).
    Removing user_app.o(.data), (1 bytes).
    Removing user_app.o(.data), (1 bytes).
    Removing user_app.o(.data), (1 bytes).
    Removing user_app.o(.data), (1 bytes).
    Removing user_app.o(.data), (1 bytes).
    Removing user_app.o(.data), (1 bytes).
    Removing user_app.o(.data), (1 bytes).
    Removing user_app.o(.data), (1 bytes).
    Removing user_app.o(.data), (1 bytes).
    Removing user_app.o(.data), (1 bytes).
    Removing user_app.o(.data), (1 bytes).
    Removing user_app.o(.data), (1 bytes).
    Removing user_app.o(.data), (1 bytes).
    Removing user_app.o(.data), (2 bytes).
    Removing user_app.o(.data), (2 bytes).
    Removing user_app.o(.data), (3 bytes).
    Removing user_app.o(.data), (2 bytes).
    Removing lcd.o(.rev16_text), (4 bytes).
    Removing lcd.o(.revsh_text), (4 bytes).
    Removing lcd.o(.constdata), (7 bytes).
    Removing button.o(i.Button_Delete), (32 bytes).
    Removing button.o(i.Button_Process_CallBack), (8 bytes).
    Removing button.o(i.Get_Button_Event), (6 bytes).
    Removing button.o(i.Get_Button_EventInfo), (12 bytes).
    Removing button.o(i.Get_Button_State), (10 bytes).
    Removing lib_svpwm.o(i.Calc_Atan), (448 bytes).
    Removing lib_svpwm.o(i.SVPWM_1ShuntGEN), (972 bytes).
    Removing lib_svpwm.o(i.SVPWM_3ShuntGEN), (524 bytes).
    Removing lib_svpwm.o(i.SVPWM_EABS_Process), (58 bytes).
    Removing lib_svpwm.o(i.lowPass_filter), (18 bytes).
    Removing lib_svpwm.o(.constdata), (544 bytes).
    Removing fluxobserve.o(.data), (4 bytes).
    Removing fluxobserve.o(.data), (2 bytes).
    Removing fluxobserve.o(.data), (4 bytes).
    Removing fluxobserve.o(.data), (4 bytes).
    Removing fluxobserve.o(.data), (2 bytes).
    Removing fluxobserve.o(.data), (2 bytes).
    Removing fluxobserve.o(.data), (2 bytes).
    Removing fluxobserve.o(.data), (2 bytes).
    Removing fluxobserve.o(.data), (2 bytes).
    Removing fluxobserve.o(.data), (2 bytes).
    Removing fluxobserve.o(.data), (2 bytes).
    Removing fluxobserve.o(.data), (2 bytes).
    Removing fluxobserve.o(.data), (2 bytes).
    Removing fluxobserve.o(.data), (4 bytes).
    Removing fluxobserve.o(.data), (4 bytes).
    Removing lib_ipd.o(i.FindMaxIn3), (58 bytes).
    Removing lib_ipd.o(i.IPD_AngleCalc), (152 bytes).
    Removing lib_ipd.o(i.IPD_RotorPosEst), (256 bytes).
    Removing lib_ipd.o(i.PoloEstCurSample), (96 bytes).
    Removing lib_ipd.o(i.VolPulsePwmSet), (76 bytes).
    Removing lib_ipd.o(i.soft_Trg_ADC), (40 bytes).
    Removing onthefly.o(i.Bemf_Angle_Process), (352 bytes).
    Removing onthefly.o(i.BrakeStateCheck), (120 bytes).
    Removing onthefly.o(i.OnTheFlyDetectPro), (184 bytes).
    Removing onthefly.o(i.OnTheFlyDetectPro1), (120 bytes).
    Removing onthefly.o(.data), (2 bytes).
    Removing onthefly.o(.data), (2 bytes).
    Removing onthefly.o(.data), (2 bytes).
    Removing onthefly.o(.data), (2 bytes).
    Removing lib_mc_hall.o(i.GetHall_edgeAngle), (580 bytes).
    Removing lib_mc_hall.o(i.calc_first_ElectAngle), (148 bytes).
    Removing lib_mc_hall.o(i.check_hall_state), (856 bytes).
    Removing lib_mc_hall.o(i.closeLoopAnglePLL), (104 bytes).
    Removing lib_mc_hall.o(i.closeLoopAnglePLLInit), (264 bytes).
    Removing lib_mc_hall.o(i.hallErrorCheck), (92 bytes).
    Removing lib_mc_hall.o(i.hall_repare_process), (228 bytes).
    Removing lib_mc_hall.o(i.learn_hall_proc), (388 bytes).
    Removing lib_mc_hall.o(i.reduceToqueAnglePll), (40 bytes).
    Removing lib_mc_hall.o(.data), (8 bytes).
    Removing lib_mc_hall.o(.data), (6 bytes).
    Removing lib_mc_hall.o(.data), (2 bytes).
    Removing lib_mc_hall.o(.data), (2 bytes).
    Removing lib_mc_hall.o(.data), (4 bytes).
    Removing lks32mc03x_nvr.o(i.Read_Trim), (92 bytes).

308 unused section(s) (total 17329 bytes) removed from the image.

==============================================================================

Image Symbol Table

    Local Symbols

    Symbol Name                              Value     Ov Type        Size  Object(Section)

    RESET                                    0x00000000   Section      192  startup_lks32mc03x.o(RESET)
    ../clib/../cmprslib/zerorunl.c           0x00000000   Number         0  __dczerorl.o ABSOLUTE
    ../clib/angel/boardlib.s                 0x00000000   Number         0  boardinit2.o ABSOLUTE
    ../clib/angel/boardlib.s                 0x00000000   Number         0  boardinit1.o ABSOLUTE
    ../clib/angel/boardlib.s                 0x00000000   Number         0  boardinit3.o ABSOLUTE
    ../clib/angel/boardlib.s                 0x00000000   Number         0  boardshut.o ABSOLUTE
    ../clib/angel/handlers.s                 0x00000000   Number         0  __scatter_zi.o ABSOLUTE
    ../clib/angel/kernel.s                   0x00000000   Number         0  __rtentry.o ABSOLUTE
    ../clib/angel/kernel.s                   0x00000000   Number         0  rtexit2.o ABSOLUTE
    ../clib/angel/kernel.s                   0x00000000   Number         0  rtexit.o ABSOLUTE
    ../clib/angel/kernel.s                   0x00000000   Number         0  __rtentry2.o ABSOLUTE
    ../clib/angel/kernel.s                   0x00000000   Number         0  __rtentry4.o ABSOLUTE
    ../clib/angel/rt.s                       0x00000000   Number         0  aeabi_ldiv0.o ABSOLUTE
    ../clib/angel/rt.s                       0x00000000   Number         0  rt_div0.o ABSOLUTE
    ../clib/angel/rt.s                       0x00000000   Number         0  aeabi_idiv0_sigfpe.o ABSOLUTE
    ../clib/angel/rt.s                       0x00000000   Number         0  rt_raise.o ABSOLUTE
    ../clib/angel/rt.s                       0x00000000   Number         0  aeabi_ldiv0_sigfpe.o ABSOLUTE
    ../clib/angel/rt.s                       0x00000000   Number         0  aeabi_idiv0.o ABSOLUTE
    ../clib/angel/scatterp.s                 0x00000000   Number         0  __scatter.o ABSOLUTE
    ../clib/angel/startup.s                  0x00000000   Number         0  __main.o ABSOLUTE
    ../clib/angel/sys.s                      0x00000000   Number         0  tempstk.o ABSOLUTE
    ../clib/angel/sys.s                      0x00000000   Number         0  indicate_semi.o ABSOLUTE
    ../clib/angel/sys.s                      0x00000000   Number         0  sys_stackheap_outer.o ABSOLUTE
    ../clib/angel/sys.s                      0x00000000   Number         0  use_no_semi.o ABSOLUTE
    ../clib/angel/sys.s                      0x00000000   Number         0  libspace.o ABSOLUTE
    ../clib/angel/sysapp.c                   0x00000000   Number         0  sys_wrch.o ABSOLUTE
    ../clib/angel/sysapp.c                   0x00000000   Number         0  sys_exit.o ABSOLUTE
    ../clib/angel/sysapp.c                   0x00000000   Number         0  sys_command.o ABSOLUTE
    ../clib/armsys.c                         0x00000000   Number         0  argv_veneer.o ABSOLUTE
    ../clib/armsys.c                         0x00000000   Number         0  no_argv.o ABSOLUTE
    ../clib/armsys.c                         0x00000000   Number         0  _get_argv_nomalloc.o ABSOLUTE
    ../clib/division.c                       0x00000000   Number         0  llsdiv.o ABSOLUTE
    ../clib/division.c                       0x00000000   Number         0  lludiv.o ABSOLUTE
    ../clib/division.s                       0x00000000   Number         0  aeabi_sdiv_div0.o ABSOLUTE
    ../clib/division.s                       0x00000000   Number         0  aeabi_sdiv.o ABSOLUTE
    ../clib/heapalloc.c                      0x00000000   Number         0  hrguard.o ABSOLUTE
    ../clib/heapaux.c                        0x00000000   Number         0  heapauxi.o ABSOLUTE
    ../clib/libinit.s                        0x00000000   Number         0  libinit.o ABSOLUTE
    ../clib/libinit.s                        0x00000000   Number         0  libshutdown.o ABSOLUTE
    ../clib/libinit.s                        0x00000000   Number         0  libshutdown2.o ABSOLUTE
    ../clib/libinit.s                        0x00000000   Number         0  libinit2.o ABSOLUTE
    ../clib/longlong.c                       0x00000000   Number         0  llmul.o ABSOLUTE
    ../clib/longlong.c                       0x00000000   Number         0  llshl.o ABSOLUTE
    ../clib/longlong.c                       0x00000000   Number         0  llsshr.o ABSOLUTE
    ../clib/memcpset.c                       0x00000000   Number         0  rt_memcpy.o ABSOLUTE
    ../clib/memcpset.c                       0x00000000   Number         0  rt_memclr.o ABSOLUTE
    ../clib/memcpset.c                       0x00000000   Number         0  rt_memcpy.o ABSOLUTE
    ../clib/signal.c                         0x00000000   Number         0  defsig_fpe_formal.o ABSOLUTE
    ../clib/signal.c                         0x00000000   Number         0  defsig_rtmem_outer.o ABSOLUTE
    ../clib/signal.c                         0x00000000   Number         0  defsig_rtmem_formal.o ABSOLUTE
    ../clib/signal.c                         0x00000000   Number         0  defsig_stak_inner.o ABSOLUTE
    ../clib/signal.c                         0x00000000   Number         0  defsig_fpe_outer.o ABSOLUTE
    ../clib/signal.c                         0x00000000   Number         0  defsig_pvfn_inner.o ABSOLUTE
    ../clib/signal.c                         0x00000000   Number         0  defsig_cppl_inner.o ABSOLUTE
    ../clib/signal.c                         0x00000000   Number         0  defsig_segv_inner.o ABSOLUTE
    ../clib/signal.c                         0x00000000   Number         0  defsig_exit.o ABSOLUTE
    ../clib/signal.c                         0x00000000   Number         0  defsig_fpe_inner.o ABSOLUTE
    ../clib/signal.c                         0x00000000   Number         0  __raise.o ABSOLUTE
    ../clib/signal.c                         0x00000000   Number         0  defsig_general.o ABSOLUTE
    ../clib/signal.c                         0x00000000   Number         0  defsig_abrt_inner.o ABSOLUTE
    ../clib/signal.c                         0x00000000   Number         0  defsig_rtred_inner.o ABSOLUTE
    ../clib/signal.c                         0x00000000   Number         0  defsig_other.o ABSOLUTE
    ../clib/signal.c                         0x00000000   Number         0  defsig_rtmem_inner.o ABSOLUTE
    ../clib/signal.s                         0x00000000   Number         0  defsig.o ABSOLUTE
    ../clib/stdlib.c                         0x00000000   Number         0  exit.o ABSOLUTE
    ../clib/string.c                         0x00000000   Number         0  strcpy.o ABSOLUTE
    ../clib/string.c                         0x00000000   Number         0  strlen.o ABSOLUTE
    ../fplib/cfplib/d2f.c                    0x00000000   Number         0  d2f.o ABSOLUTE
    ../fplib/cfplib/daddsub.c                0x00000000   Number         0  daddsub.o ABSOLUTE
    ../fplib/cfplib/ddiv.c                   0x00000000   Number         0  ddiv.o ABSOLUTE
    ../fplib/cfplib/dmul.c                   0x00000000   Number         0  dmul.o ABSOLUTE
    ../fplib/cfplib/f2d.c                    0x00000000   Number         0  f2d.o ABSOLUTE
    ../fplib/cfplib/fdiv.c                   0x00000000   Number         0  fdiv.o ABSOLUTE
    ../fplib/cfplib/ffix.c                   0x00000000   Number         0  ffixi.o ABSOLUTE
    ../fplib/cfplib/ffix.c                   0x00000000   Number         0  dfixi.o ABSOLUTE
    ../fplib/cfplib/ffix.c                   0x00000000   Number         0  dfixui.o ABSOLUTE
    ../fplib/cfplib/fflt.c                   0x00000000   Number         0  fflti.o ABSOLUTE
    ../fplib/cfplib/fflt.c                   0x00000000   Number         0  dflti.o ABSOLUTE
    ../fplib/cfplib/fflt.c                   0x00000000   Number         0  dfltl.o ABSOLUTE
    ../fplib/cfplib/fpinit.c                 0x00000000   Number         0  fpinit.o ABSOLUTE
    ../fplib/fmul6m.s                        0x00000000   Number         0  fmul.o ABSOLUTE
    ../fplib/usenofp.s                       0x00000000   Number         0  usenofp.o ABSOLUTE
    AppFunction\Global_Variable.c            0x00000000   Number         0  global_variable.o ABSOLUTE
    AppFunction\HeatControl.c                0x00000000   Number         0  heatcontrol.o ABSOLUTE
    AppFunction\PowerCalculation.c           0x00000000   Number         0  powercalculation.o ABSOLUTE
    AppFunction\Process_Control.c            0x00000000   Number         0  process_control.o ABSOLUTE
    AppFunction\SpeedScan.c                  0x00000000   Number         0  speedscan.o ABSOLUTE
    AppFunction\System_Init.c                0x00000000   Number         0  system_init.o ABSOLUTE
    AppFunction\Task_Scheduler.c             0x00000000   Number         0  task_scheduler.o ABSOLUTE
    AppFunction\\Global_Variable.c           0x00000000   Number         0  global_variable.o ABSOLUTE
    AppFunction\\HeatControl.c               0x00000000   Number         0  heatcontrol.o ABSOLUTE
    AppFunction\\PowerCalculation.c          0x00000000   Number         0  powercalculation.o ABSOLUTE
    AppFunction\\Process_Control.c           0x00000000   Number         0  process_control.o ABSOLUTE
    AppFunction\\SpeedScan.c                 0x00000000   Number         0  speedscan.o ABSOLUTE
    AppFunction\\System_Init.c               0x00000000   Number         0  system_init.o ABSOLUTE
    AppFunction\\Task_Scheduler.c            0x00000000   Number         0  task_scheduler.o ABSOLUTE
    AppFunction\\fault_detection.c           0x00000000   Number         0  fault_detection.o ABSOLUTE
    AppFunction\\hardware_init.c             0x00000000   Number         0  hardware_init.o ABSOLUTE
    AppFunction\\interrupt.c                 0x00000000   Number         0  interrupt.o ABSOLUTE
    AppFunction\\state_machine.c             0x00000000   Number         0  state_machine.o ABSOLUTE
    AppFunction\fault_detection.c            0x00000000   Number         0  fault_detection.o ABSOLUTE
    AppFunction\hardware_init.c              0x00000000   Number         0  hardware_init.o ABSOLUTE
    AppFunction\interrupt.c                  0x00000000   Number         0  interrupt.o ABSOLUTE
    AppFunction\state_machine.c              0x00000000   Number         0  state_machine.o ABSOLUTE
    Kernal_Source\App2Core.c                 0x00000000   Number         0  app2core.o ABSOLUTE
    Kernal_Source\FOC_Drive.c                0x00000000   Number         0  foc_drive.o ABSOLUTE
    Kernal_Source\FluxObserve.c              0x00000000   Number         0  fluxobserve.o ABSOLUTE
    Kernal_Source\Lib_IPD.c                  0x00000000   Number         0  lib_ipd.o ABSOLUTE
    Kernal_Source\Lib_MC_hall.c              0x00000000   Number         0  lib_mc_hall.o ABSOLUTE
    Kernal_Source\Lib_Svpwm.c                0x00000000   Number         0  lib_svpwm.o ABSOLUTE
    Kernal_Source\MC_hall.c                  0x00000000   Number         0  mc_hall.o ABSOLUTE
    Kernal_Source\MC_math.c                  0x00000000   Number         0  mc_math.o ABSOLUTE
    Kernal_Source\OnTheFly.c                 0x00000000   Number         0  onthefly.o ABSOLUTE
    Kernal_Source\PID_regulators.c           0x00000000   Number         0  pid_regulators.o ABSOLUTE
    Kernal_Source\SignalChain_Sample.c       0x00000000   Number         0  signalchain_sample.o ABSOLUTE
    Kernal_Source\\App2Core.c                0x00000000   Number         0  app2core.o ABSOLUTE
    Kernal_Source\\FOC_Drive.c               0x00000000   Number         0  foc_drive.o ABSOLUTE
    Kernal_Source\\MC_hall.c                 0x00000000   Number         0  mc_hall.o ABSOLUTE
    Kernal_Source\\MC_math.c                 0x00000000   Number         0  mc_math.o ABSOLUTE
    Kernal_Source\\SignalChain_Sample.c      0x00000000   Number         0  signalchain_sample.o ABSOLUTE
    Kernal_Source\\main.c                    0x00000000   Number         0  main.o ABSOLUTE
    Kernal_Source\main.c                     0x00000000   Number         0  main.o ABSOLUTE
    LKS32MC03x_Periph_Driver\Source\lks32MC03x_Flash.c 0x00000000   Number         0  lks32mc03x_flash.o ABSOLUTE
    LKS32MC03x_Periph_Driver\Source\lks32mc03x_DMA.c 0x00000000   Number         0  lks32mc03x_dma.o ABSOLUTE
    LKS32MC03x_Periph_Driver\Source\lks32mc03x_I2C.c 0x00000000   Number         0  lks32mc03x_i2c.o ABSOLUTE
    LKS32MC03x_Periph_Driver\Source\lks32mc03x_IWDG.c 0x00000000   Number         0  lks32mc03x_iwdg.o ABSOLUTE
    LKS32MC03x_Periph_Driver\Source\lks32mc03x_MCPWM.c 0x00000000   Number         0  lks32mc03x_mcpwm.o ABSOLUTE
    LKS32MC03x_Periph_Driver\Source\lks32mc03x_adc.c 0x00000000   Number         0  lks32mc03x_adc.o ABSOLUTE
    LKS32MC03x_Periph_Driver\Source\lks32mc03x_cmp.c 0x00000000   Number         0  lks32mc03x_cmp.o ABSOLUTE
    LKS32MC03x_Periph_Driver\Source\lks32mc03x_gpio.c 0x00000000   Number         0  lks32mc03x_gpio.o ABSOLUTE
    LKS32MC03x_Periph_Driver\Source\lks32mc03x_hall.c 0x00000000   Number         0  lks32mc03x_hall.o ABSOLUTE
    LKS32MC03x_Periph_Driver\Source\lks32mc03x_spi.c 0x00000000   Number         0  lks32mc03x_spi.o ABSOLUTE
    LKS32MC03x_Periph_Driver\Source\lks32mc03x_sys.c 0x00000000   Number         0  lks32mc03x_sys.o ABSOLUTE
    LKS32MC03x_Periph_Driver\Source\lks32mc03x_timer.c 0x00000000   Number         0  lks32mc03x_timer.o ABSOLUTE
    LKS32MC03x_Periph_Driver\Source\lks32mc03x_uart.c 0x00000000   Number         0  lks32mc03x_uart.o ABSOLUTE
    LKS32MC03x_Periph_Driver\Source\startup_lks32mc03x.s 0x00000000   Number         0  startup_lks32mc03x.o ABSOLUTE
    LKS32MC03x_Periph_Driver\\Source\\lks32MC03x_Flash.c 0x00000000   Number         0  lks32mc03x_flash.o ABSOLUTE
    LKS32MC03x_Periph_Driver\\Source\\lks32mc03x_DMA.c 0x00000000   Number         0  lks32mc03x_dma.o ABSOLUTE
    LKS32MC03x_Periph_Driver\\Source\\lks32mc03x_I2C.c 0x00000000   Number         0  lks32mc03x_i2c.o ABSOLUTE
    LKS32MC03x_Periph_Driver\\Source\\lks32mc03x_IWDG.c 0x00000000   Number         0  lks32mc03x_iwdg.o ABSOLUTE
    LKS32MC03x_Periph_Driver\\Source\\lks32mc03x_MCPWM.c 0x00000000   Number         0  lks32mc03x_mcpwm.o ABSOLUTE
    LKS32MC03x_Periph_Driver\\Source\\lks32mc03x_adc.c 0x00000000   Number         0  lks32mc03x_adc.o ABSOLUTE
    LKS32MC03x_Periph_Driver\\Source\\lks32mc03x_cmp.c 0x00000000   Number         0  lks32mc03x_cmp.o ABSOLUTE
    LKS32MC03x_Periph_Driver\\Source\\lks32mc03x_gpio.c 0x00000000   Number         0  lks32mc03x_gpio.o ABSOLUTE
    LKS32MC03x_Periph_Driver\\Source\\lks32mc03x_hall.c 0x00000000   Number         0  lks32mc03x_hall.o ABSOLUTE
    LKS32MC03x_Periph_Driver\\Source\\lks32mc03x_spi.c 0x00000000   Number         0  lks32mc03x_spi.o ABSOLUTE
    LKS32MC03x_Periph_Driver\\Source\\lks32mc03x_sys.c 0x00000000   Number         0  lks32mc03x_sys.o ABSOLUTE
    LKS32MC03x_Periph_Driver\\Source\\lks32mc03x_timer.c 0x00000000   Number         0  lks32mc03x_timer.o ABSOLUTE
    LKS32MC03x_Periph_Driver\\Source\\lks32mc03x_uart.c 0x00000000   Number         0  lks32mc03x_uart.o ABSOLUTE
    RTT\SEGGER_RTT.c                         0x00000000   Number         0  segger_rtt.o ABSOLUTE
    RTT\SEGGER_RTT_printf.c                  0x00000000   Number         0  segger_rtt_printf.o ABSOLUTE
    USER_APP\USER_APP.c                      0x00000000   Number         0  user_app.o ABSOLUTE
    USER_APP\\USER_APP.c                     0x00000000   Number         0  user_app.o ABSOLUTE
    USER_APP\\lcd.c                          0x00000000   Number         0  lcd.o ABSOLUTE
    USER_APP\button.c                        0x00000000   Number         0  button.o ABSOLUTE
    USER_APP\lcd.c                           0x00000000   Number         0  lcd.o ABSOLUTE
    dc.s                                     0x00000000   Number         0  dc.o ABSOLUTE
    lks32mc03x_NVR.c                         0x00000000   Number         0  lks32mc03x_nvr.o ABSOLUTE
    !!!main                                  0x000000c0   Section        8  __main.o(!!!main)
    !!!scatter                               0x000000c8   Section       60  __scatter.o(!!!scatter)
    !!handler_zi                             0x00000104   Section       28  __scatter_zi.o(!!handler_zi)
    .ARM.Collect$$libinit$$00000000          0x00000120   Section        2  libinit.o(.ARM.Collect$$libinit$$00000000)
    .ARM.Collect$$libinit$$00000002          0x00000122   Section        0  libinit2.o(.ARM.Collect$$libinit$$00000002)
    .ARM.Collect$$libinit$$00000004          0x00000122   Section        0  libinit2.o(.ARM.Collect$$libinit$$00000004)
    .ARM.Collect$$libinit$$0000000A          0x00000122   Section        0  libinit2.o(.ARM.Collect$$libinit$$0000000A)
    .ARM.Collect$$libinit$$0000000C          0x00000122   Section        0  libinit2.o(.ARM.Collect$$libinit$$0000000C)
    .ARM.Collect$$libinit$$0000000E          0x00000122   Section        0  libinit2.o(.ARM.Collect$$libinit$$0000000E)
    .ARM.Collect$$libinit$$00000011          0x00000122   Section        0  libinit2.o(.ARM.Collect$$libinit$$00000011)
    .ARM.Collect$$libinit$$00000013          0x00000122   Section        0  libinit2.o(.ARM.Collect$$libinit$$00000013)
    .ARM.Collect$$libinit$$00000015          0x00000122   Section        0  libinit2.o(.ARM.Collect$$libinit$$00000015)
    .ARM.Collect$$libinit$$00000017          0x00000122   Section        0  libinit2.o(.ARM.Collect$$libinit$$00000017)
    .ARM.Collect$$libinit$$00000019          0x00000122   Section        0  libinit2.o(.ARM.Collect$$libinit$$00000019)
    .ARM.Collect$$libinit$$0000001B          0x00000122   Section        0  libinit2.o(.ARM.Collect$$libinit$$0000001B)
    .ARM.Collect$$libinit$$0000001D          0x00000122   Section        0  libinit2.o(.ARM.Collect$$libinit$$0000001D)
    .ARM.Collect$$libinit$$0000001F          0x00000122   Section        0  libinit2.o(.ARM.Collect$$libinit$$0000001F)
    .ARM.Collect$$libinit$$00000021          0x00000122   Section        0  libinit2.o(.ARM.Collect$$libinit$$00000021)
    .ARM.Collect$$libinit$$00000023          0x00000122   Section        0  libinit2.o(.ARM.Collect$$libinit$$00000023)
    .ARM.Collect$$libinit$$00000025          0x00000122   Section        0  libinit2.o(.ARM.Collect$$libinit$$00000025)
    .ARM.Collect$$libinit$$0000002C          0x00000122   Section        0  libinit2.o(.ARM.Collect$$libinit$$0000002C)
    .ARM.Collect$$libinit$$0000002E          0x00000122   Section        0  libinit2.o(.ARM.Collect$$libinit$$0000002E)
    .ARM.Collect$$libinit$$00000030          0x00000122   Section        0  libinit2.o(.ARM.Collect$$libinit$$00000030)
    .ARM.Collect$$libinit$$00000032          0x00000122   Section        0  libinit2.o(.ARM.Collect$$libinit$$00000032)
    .ARM.Collect$$libinit$$00000033          0x00000122   Section        2  libinit2.o(.ARM.Collect$$libinit$$00000033)
    .ARM.Collect$$libshutdown$$00000000      0x00000124   Section        2  libshutdown.o(.ARM.Collect$$libshutdown$$00000000)
    .ARM.Collect$$libshutdown$$00000002      0x00000126   Section        0  libshutdown2.o(.ARM.Collect$$libshutdown$$00000002)
    .ARM.Collect$$libshutdown$$00000004      0x00000126   Section        0  libshutdown2.o(.ARM.Collect$$libshutdown$$00000004)
    .ARM.Collect$$libshutdown$$00000006      0x00000126   Section        0  libshutdown2.o(.ARM.Collect$$libshutdown$$00000006)
    .ARM.Collect$$libshutdown$$00000009      0x00000126   Section        0  libshutdown2.o(.ARM.Collect$$libshutdown$$00000009)
    .ARM.Collect$$libshutdown$$0000000C      0x00000126   Section        0  libshutdown2.o(.ARM.Collect$$libshutdown$$0000000C)
    .ARM.Collect$$libshutdown$$0000000E      0x00000126   Section        0  libshutdown2.o(.ARM.Collect$$libshutdown$$0000000E)
    .ARM.Collect$$libshutdown$$00000011      0x00000126   Section        0  libshutdown2.o(.ARM.Collect$$libshutdown$$00000011)
    .ARM.Collect$$libshutdown$$00000012      0x00000126   Section        2  libshutdown2.o(.ARM.Collect$$libshutdown$$00000012)
    .ARM.Collect$$rtentry$$00000000          0x00000128   Section        0  __rtentry.o(.ARM.Collect$$rtentry$$00000000)
    .ARM.Collect$$rtentry$$00000002          0x00000128   Section        0  __rtentry2.o(.ARM.Collect$$rtentry$$00000002)
    .ARM.Collect$$rtentry$$00000004          0x00000128   Section        6  __rtentry4.o(.ARM.Collect$$rtentry$$00000004)
    .ARM.Collect$$rtentry$$00000009          0x0000012e   Section        0  __rtentry2.o(.ARM.Collect$$rtentry$$00000009)
    .ARM.Collect$$rtentry$$0000000A          0x0000012e   Section        4  __rtentry2.o(.ARM.Collect$$rtentry$$0000000A)
    .ARM.Collect$$rtentry$$0000000C          0x00000132   Section        0  __rtentry2.o(.ARM.Collect$$rtentry$$0000000C)
    .ARM.Collect$$rtentry$$0000000D          0x00000132   Section        8  __rtentry2.o(.ARM.Collect$$rtentry$$0000000D)
    .ARM.Collect$$rtexit$$00000000           0x0000013a   Section        2  rtexit.o(.ARM.Collect$$rtexit$$00000000)
    .ARM.Collect$$rtexit$$00000002           0x0000013c   Section        0  rtexit2.o(.ARM.Collect$$rtexit$$00000002)
    .ARM.Collect$$rtexit$$00000003           0x0000013c   Section        4  rtexit2.o(.ARM.Collect$$rtexit$$00000003)
    .ARM.Collect$$rtexit$$00000004           0x00000140   Section        6  rtexit2.o(.ARM.Collect$$rtexit$$00000004)
    .emb_text                                0x00000148   Section       56  rt_memcpy.o(.emb_text)
    .text                                    0x00000180   Section       68  startup_lks32mc03x.o(.text)
    .text                                    0x000001c4   Section        0  llshl.o(.text)
    .text                                    0x000001e4   Section        0  llsshr.o(.text)
    .text                                    0x0000020a   Section        0  llmul.o(.text)
    .text                                    0x0000023a   Section        0  llsdiv.o(.text)
    .text                                    0x000002aa   Section        0  rt_memcpy.o(.text)
    .text                                    0x0000032c   Section        0  rt_memclr.o(.text)
    .text                                    0x0000036c   Section      346  aeabi_sdiv.o(.text)
    .text                                    0x000004c6   Section        0  heapauxi.o(.text)
    .text                                    0x000004cc   Section        0  d2f.o(.text)
    .text                                    0x00000548   Section        0  daddsub.o(.text)
    _dadd1                                   0x00000549   Thumb Code   290  daddsub.o(.text)
    _dsub1                                   0x0000066b   Thumb Code   470  daddsub.o(.text)
    .text                                    0x000008a0   Section        0  ddiv.o(.text)
    .text                                    0x00000ce8   Section        0  dfixi.o(.text)
    .text                                    0x00000d54   Section        0  dfixui.o(.text)
    .text                                    0x00000d9c   Section        0  dflti.o(.text)
    .text                                    0x00000df4   Section        0  dfltl.o(.text)
    .text                                    0x00000e78   Section        0  dmul.o(.text)
    .text                                    0x000010c0   Section        0  f2d.o(.text)
    .text                                    0x00001114   Section        0  fdiv.o(.text)
    .text                                    0x00001274   Section        0  ffixi.o(.text)
    .text                                    0x000012c0   Section        0  fflti.o(.text)
    .text                                    0x0000131e   Section        0  lludiv.o(.text)
    .text                                    0x00001420   Section       62  sys_stackheap_outer.o(.text)
    .text                                    0x0000145e   Section        0  exit.o(.text)
    .text                                    0x00001470   Section        8  libspace.o(.text)
    .text                                    0x00001478   Section        0  sys_exit.o(.text)
    .text                                    0x00001484   Section        2  use_no_semi.o(.text)
    .text                                    0x00001486   Section        0  indicate_semi.o(.text)
    .text                                    0x00001486   Section        0  __dczerorl.o(.text)
    i.ADC_IRQHandler                         0x000014c0   Section        0  interrupt.o(i.ADC_IRQHandler)
    i.ADC_Init                               0x00001568   Section        0  lks32mc03x_adc.o(i.ADC_Init)
    i.ADC_NormalModeCFG                      0x000015b0   Section        0  signalchain_sample.o(i.ADC_NormalModeCFG)
    i.ADC_StructInit                         0x000015dc   Section        0  lks32mc03x_adc.o(i.ADC_StructInit)
    i.ADC_init                               0x000015fc   Section        0  hardware_init.o(i.ADC_init)
    i.AdcSampleCal                           0x00001654   Section        0  foc_drive.o(i.AdcSampleCal)
    i.Add_Button                             0x000016b0   Section        0  button.o(i.Add_Button)
    Add_Button                               0x000016b1   Thumb Code    10  button.o(i.Add_Button)
    i.App2CoreCurTrans                       0x000016c0   Section        0  app2core.o(i.App2CoreCurTrans)
    i.App2CoreFreqTrans                      0x000016d0   Section        0  app2core.o(i.App2CoreFreqTrans)
    i.AutoFieldWeakReg                       0x000016e0   Section        0  fluxobserve.o(i.AutoFieldWeakReg)
    i.Btn1_Dowm_CallBack                     0x0000173c   Section        0  user_app.o(i.Btn1_Dowm_CallBack)
    i.Button_Attach                          0x0000176c   Section        0  button.o(i.Button_Attach)
    i.Button_Create                          0x0000178a   Section        0  button.o(i.Button_Create)
    i.Button_Cycle_Process                   0x000017ee   Section        0  button.o(i.Button_Cycle_Process)
    i.Button_Process                         0x0000192c   Section        0  button.o(i.Button_Process)
    i.CMP_IRQHandler                         0x00001948   Section        0  interrupt.o(i.CMP_IRQHandler)
    i.CMP_Init                               0x000019ac   Section        0  lks32mc03x_cmp.o(i.CMP_Init)
    i.CMP_StructInit                         0x00001a8c   Section        0  lks32mc03x_cmp.o(i.CMP_StructInit)
    i.CMP_init                               0x00001acc   Section        0  hardware_init.o(i.CMP_init)
    i.Clock_Init                             0x00001b18   Section        0  hardware_init.o(i.Clock_Init)
    i.CurrentAmplitudeCalc                   0x00001b40   Section        0  fault_detection.o(i.CurrentAmplitudeCalc)
    i.CurrentLoopAxisD_Set                   0x00001ba0   Section        0  state_machine.o(i.CurrentLoopAxisD_Set)
    i.CurrentLoopAxisQ_Set                   0x00001be0   Section        0  state_machine.o(i.CurrentLoopAxisQ_Set)
    i.CurrentLoopReg                         0x00001c20   Section        0  foc_drive.o(i.CurrentLoopReg)
    i.CurrentMagCalc                         0x00001c68   Section        0  mc_math.o(i.CurrentMagCalc)
    i.CurrentOffsetCalibration               0x00001c7c   Section        0  system_init.o(i.CurrentOffsetCalibration)
    i.CurrentPIRegulator                     0x00001d7c   Section        0  pid_regulators.o(i.CurrentPIRegulator)
    i.DAC_Init                               0x00001db0   Section        0  hardware_init.o(i.DAC_Init)
    i.DMA_CHx_EN                             0x00001dc2   Section        0  lks32mc03x_dma.o(i.DMA_CHx_EN)
    i.DMA_IRQHandler                         0x00001dda   Section        0  interrupt.o(i.DMA_IRQHandler)
    i.DMA_Init                               0x00001ddc   Section        0  lks32mc03x_dma.o(i.DMA_Init)
    i.DcVoltPerUnitCalc                      0x00001e60   Section        0  fluxobserve.o(i.DcVoltPerUnitCalc)
    i.DcVoltPerUnitCalcInt                   0x00001eac   Section        0  fluxobserve.o(i.DcVoltPerUnitCalcInt)
    i.EraseSector                            0x00001f04   Section        0  lks32mc03x_flash.o(i.EraseSector)
    i.EraseWriteFlash                        0x00001f90   Section        0  user_app.o(i.EraseWriteFlash)
    i.FOC_InitstruParam                      0x00001fdc   Section        0  foc_drive.o(i.FOC_InitstruParam)
    i.FOC_Model                              0x00002048   Section        0  foc_drive.o(i.FOC_Model)
    i.FWLoopPIReg                            0x000020e8   Section        0  fluxobserve.o(i.FWLoopPIReg)
    i.FaultCheck                             0x00002128   Section        0  fault_detection.o(i.FaultCheck)
    i.FaultCurrentCheck                      0x00002200   Section        0  fault_detection.o(i.FaultCurrentCheck)
    i.FaultInit                              0x00002248   Section        0  fault_detection.o(i.FaultInit)
    i.FaultPhaseCheck                        0x00002340   Section        0  fault_detection.o(i.FaultPhaseCheck)
    i.FaultRecover                           0x000023a0   Section        0  fault_detection.o(i.FaultRecover)
    i.FaultRecoverInit                       0x00002420   Section        0  fault_detection.o(i.FaultRecoverInit)
    i.FaultStallCheck                        0x00002464   Section        0  fault_detection.o(i.FaultStallCheck)
    i.FaultStartCheck                        0x0000262c   Section        0  fault_detection.o(i.FaultStartCheck)
    i.FaultTempCheck                         0x000026fc   Section        0  fault_detection.o(i.FaultTempCheck)
    i.FaultVoltageCheck                      0x00002700   Section        0  fault_detection.o(i.FaultVoltageCheck)
    i.FindQNum                               0x00002774   Section        0  fluxobserve.o(i.FindQNum)
    i.FluxObserveInit                        0x00002790   Section        0  system_init.o(i.FluxObserveInit)
    i.FluxObserveParaCalc                    0x000027f4   Section        0  fluxobserve.o(i.FluxObserveParaCalc)
    i.Flux_OBS_ParaInit                      0x00002e50   Section        0  fluxobserve.o(i.Flux_OBS_ParaInit)
    i.FunStateCharge                         0x00002e78   Section        0  user_app.o(i.FunStateCharge)
    i.GPIO_IRQHandler                        0x00002f28   Section        0  interrupt.o(i.GPIO_IRQHandler)
    i.GPIO_Init                              0x00002f2a   Section        0  lks32mc03x_gpio.o(i.GPIO_Init)
    i.GPIO_PinAFConfig                       0x00002fac   Section        0  lks32mc03x_gpio.o(i.GPIO_PinAFConfig)
    i.GPIO_ReadInputDataBit                  0x00003098   Section        0  lks32mc03x_gpio.o(i.GPIO_ReadInputDataBit)
    i.GPIO_ResetBits                         0x000030a6   Section        0  lks32mc03x_gpio.o(i.GPIO_ResetBits)
    i.GPIO_SetBits                           0x000030aa   Section        0  lks32mc03x_gpio.o(i.GPIO_SetBits)
    i.GPIO_StructInit                        0x000030ae   Section        0  lks32mc03x_gpio.o(i.GPIO_StructInit)
    i.GPIO_init                              0x000030bc   Section        0  hardware_init.o(i.GPIO_init)
    i.GetHeartNTCTemp                        0x0000311c   Section        0  user_app.o(i.GetHeartNTCTemp)
    i.GetVdcSpeed                            0x00003158   Section        0  user_app.o(i.GetVdcSpeed)
    i.Get_Power                              0x000031d0   Section        0  user_app.o(i.Get_Power)
    i.Get_tempreture_num                     0x000031e8   Section        0  user_app.o(i.Get_tempreture_num)
    i.HALL_IRQHandler                        0x0000323c   Section        0  interrupt.o(i.HALL_IRQHandler)
    i.HALL_Init                              0x00003240   Section        0  lks32mc03x_hall.o(i.HALL_Init)
    i.HALL_Perip_Init                        0x00003290   Section        0  hardware_init.o(i.HALL_Perip_Init)
    i.HALL_StructInit                        0x000032cc   Section        0  lks32mc03x_hall.o(i.HALL_StructInit)
    i.Hardware_init                          0x000032f0   Section        0  hardware_init.o(i.Hardware_init)
    i.HeaterControl                          0x000033a4   Section        0  heatcontrol.o(i.HeaterControl)
    i.HeaterControl_1ms                      0x000034e4   Section        0  heatcontrol.o(i.HeaterControl_1ms)
    i.HeaterTemperature_Control              0x000035a0   Section        0  heatcontrol.o(i.HeaterTemperature_Control)
    i.I2C_IRQHandler                         0x00003674   Section        0  interrupt.o(i.I2C_IRQHandler)
    i.I2C_Init                               0x00003688   Section        0  lks32mc03x_i2c.o(i.I2C_Init)
    i.I2C_StructInit                         0x00003718   Section        0  lks32mc03x_i2c.o(i.I2C_StructInit)
    i.I2C_init                               0x00003738   Section        0  hardware_init.o(i.I2C_init)
    i.IIC_Write_Reg                          0x0000376c   Section        0  lcd.o(i.IIC_Write_Reg)
    i.Key_Speed                              0x00003788   Section        0  user_app.o(i.Key_Speed)
    i.LCD_Process                            0x000037c0   Section        0  user_app.o(i.LCD_Process)
    i.LowPassControl                         0x00003864   Section        0  powercalculation.o(i.LowPassControl)
    i.MCPWM0_IRQHandler                      0x00003890   Section        0  interrupt.o(i.MCPWM0_IRQHandler)
    i.MCPWM0_RegUpdate                       0x000038c4   Section        0  signalchain_sample.o(i.MCPWM0_RegUpdate)
    i.MCPWM1_IRQHandler                      0x00003914   Section        0  interrupt.o(i.MCPWM1_IRQHandler)
    i.MCPWM_Init                             0x00003918   Section        0  lks32mc03x_mcpwm.o(i.MCPWM_Init)
    i.MCPWM_StructInit                       0x00003b40   Section        0  lks32mc03x_mcpwm.o(i.MCPWM_StructInit)
    i.MCPWM_init                             0x00003b4c   Section        0  hardware_init.o(i.MCPWM_init)
    i.MemoryRestore                          0x00003bf4   Section        0  user_app.o(i.MemoryRestore)
    i.ModuCircle_Limitation                  0x00003c1c   Section        0  fluxobserve.o(i.ModuCircle_Limitation)
    i.NTC_R_change                           0x00003ccc   Section        0  user_app.o(i.NTC_R_change)
    i.OnTheFlyDetectInit                     0x0000427c   Section        0  fluxobserve.o(i.OnTheFlyDetectInit)
    i.OpenCloseAngleSwitch                   0x0000428c   Section        0  fluxobserve.o(i.OpenCloseAngleSwitch)
    i.OpenLoopCurRamp                        0x000042d8   Section        0  process_control.o(i.OpenLoopCurRamp)
    i.PGA_Init                               0x00004318   Section        0  hardware_init.o(i.PGA_Init)
    i.PWMOutputs                             0x00004344   Section        0  lks32mc03x_mcpwm.o(i.PWMOutputs)
    i.PmsmFluxObIni                          0x00004374   Section        0  fluxobserve.o(i.PmsmFluxObIni)
    i.PmsmFluxObserve                        0x00004414   Section        0  fluxobserve.o(i.PmsmFluxObserve)
    i.PowerCalc                              0x000044f0   Section        0  powercalculation.o(i.PowerCalc)
    i.Print_Btn_Info                         0x0000453c   Section        0  button.o(i.Print_Btn_Info)
    Print_Btn_Info                           0x0000453d   Thumb Code     8  button.o(i.Print_Btn_Info)
    i.ProgramPage                            0x00004544   Section        0  lks32mc03x_flash.o(i.ProgramPage)
    i.SPI_IRQHandler                         0x00004638   Section        0  interrupt.o(i.SPI_IRQHandler)
    i.SVPWM_2ShuntGEN                        0x0000463c   Section        0  lib_svpwm.o(i.SVPWM_2ShuntGEN)
    i.SVPWM_2ShuntGetPhaseCurrent            0x00004778   Section        0  signalchain_sample.o(i.SVPWM_2ShuntGetPhaseCurrent)
    i.SW_IRQHandler                          0x000047ac   Section        0  interrupt.o(i.SW_IRQHandler)
    i.SYS_AnalogModuleClockCmd               0x000047b0   Section        0  lks32mc03x_sys.o(i.SYS_AnalogModuleClockCmd)
    i.SYS_ModuleClockCmd                     0x000047f4   Section        0  lks32mc03x_sys.o(i.SYS_ModuleClockCmd)
    i.SYS_SoftResetModule                    0x0000481c   Section        0  lks32mc03x_sys.o(i.SYS_SoftResetModule)
    i.Search_Button                          0x00004834   Section        0  button.o(i.Search_Button)
    i.SoftDelay                              0x00004848   Section        0  task_scheduler.o(i.SoftDelay)
    i.SpeedLoopReg                           0x00004860   Section        0  foc_drive.o(i.SpeedLoopReg)
    i.SpeedLoop_Set                          0x00004894   Section        0  state_machine.o(i.SpeedLoop_Set)
    i.SpeedPIRegulator                       0x000048bc   Section        0  pid_regulators.o(i.SpeedPIRegulator)
    i.SpeedReferenceGen                      0x00004992   Section        0  process_control.o(i.SpeedReferenceGen)
    i.StateAlign                             0x000049c0   Section        0  state_machine.o(i.StateAlign)
    i.StateCharge                            0x00004a38   Section        0  state_machine.o(i.StateCharge)
    i.StateFault                             0x00004b50   Section        0  state_machine.o(i.StateFault)
    i.StateInit                              0x00004b70   Section        0  state_machine.o(i.StateInit)
    i.StateOpen                              0x00004de4   Section        0  state_machine.o(i.StateOpen)
    i.StateRun                               0x00004ed4   Section        0  state_machine.o(i.StateRun)
    i.StateStop                              0x000050f0   Section        0  state_machine.o(i.StateStop)
    i.StrnCopy                               0x00005114   Section        0  button.o(i.StrnCopy)
    StrnCopy                                 0x00005115   Thumb Code    40  button.o(i.StrnCopy)
    i.SysTick_Handler                        0x0000513c   Section        0  interrupt.o(i.SysTick_Handler)
    i.Sys_State_Machine                      0x00005140   Section        0  state_machine.o(i.Sys_State_Machine)
    i.SystemInit                             0x00005250   Section        0  hardware_init.o(i.SystemInit)
    i.TIMER0_IRQHandler                      0x00005258   Section        0  interrupt.o(i.TIMER0_IRQHandler)
    i.TIMER1_IRQHandler                      0x0000525c   Section        0  interrupt.o(i.TIMER1_IRQHandler)
    i.TIM_TimerInit                          0x00005290   Section        0  lks32mc03x_timer.o(i.TIM_TimerInit)
    i.TIM_TimerStrutInit                     0x0000533c   Section        0  lks32mc03x_timer.o(i.TIM_TimerStrutInit)
    i.Task_Scheduler                         0x00005370   Section        0  task_scheduler.o(i.Task_Scheduler)
    i.TempSensor_Init                        0x00005418   Section        0  hardware_init.o(i.TempSensor_Init)
    i.Temp_circulation                       0x00005434   Section        0  user_app.o(i.Temp_circulation)
    i.Temp_demarcate                         0x0000546c   Section        0  user_app.o(i.Temp_demarcate)
    i.Trig_Functions                         0x00005620   Section        0  mc_math.o(i.Trig_Functions)
    i.UART_IRQHandler                        0x0000569c   Section        0  interrupt.o(i.UART_IRQHandler)
    i.USER_APP_vTick10ms                     0x000056a0   Section        0  user_app.o(i.USER_APP_vTick10ms)
    i.USER_APP_vTick1ms                      0x000056d4   Section        0  user_app.o(i.USER_APP_vTick1ms)
    i.USER_APP_vTick20ms                     0x000056e4   Section        0  user_app.o(i.USER_APP_vTick20ms)
    i.USER_APP_vTick500ms                    0x000056f0   Section        0  user_app.o(i.USER_APP_vTick500ms)
    i.USER_GPIO_Init                         0x0000583c   Section        0  user_app.o(i.USER_GPIO_Init)
    i.USER_Init                              0x000058d8   Section        0  user_app.o(i.USER_Init)
    i.UTimer_init                            0x00005934   Section        0  hardware_init.o(i.UTimer_init)
    i.User2AppAngleTrans                     0x0000595c   Section        0  app2core.o(i.User2AppAngleTrans)
    i.User2AppCurTrans                       0x00005980   Section        0  app2core.o(i.User2AppCurTrans)
    i.User2AppFreqTrans                      0x000059a0   Section        0  app2core.o(i.User2AppFreqTrans)
    i.User2AppVolTrans                       0x000059c0   Section        0  app2core.o(i.User2AppVolTrans)
    i.WAKE_IRQHandler                        0x000059f8   Section        0  interrupt.o(i.WAKE_IRQHandler)
    i.__ARM_common_ll_mulss                  0x000059fa   Section        0  fluxobserve.o(i.__ARM_common_ll_mulss)
    i.__ARM_common_ll_muluu                  0x00005a2a   Section        0  fluxobserve.o(i.__ARM_common_ll_muluu)
    i.__ARM_common_switch8                   0x00005a5a   Section        0  state_machine.o(i.__ARM_common_switch8)
    i.__NVIC_DisableIRQ                      0x00005a74   Section        0  hardware_init.o(i.__NVIC_DisableIRQ)
    __NVIC_DisableIRQ                        0x00005a75   Thumb Code    26  hardware_init.o(i.__NVIC_DisableIRQ)
    i.__NVIC_EnableIRQ                       0x00005a94   Section        0  hardware_init.o(i.__NVIC_EnableIRQ)
    __NVIC_EnableIRQ                         0x00005a95   Thumb Code    18  hardware_init.o(i.__NVIC_EnableIRQ)
    i.__NVIC_SetPriority                     0x00005aac   Section        0  hardware_init.o(i.__NVIC_SetPriority)
    __NVIC_SetPriority                       0x00005aad   Thumb Code    60  hardware_init.o(i.__NVIC_SetPriority)
    i.i2c_dma_delay_over                     0x00005af0   Section        0  lks32mc03x_i2c.o(i.i2c_dma_delay_over)
    i2c_dma_delay_over                       0x00005af1   Thumb Code    38  lks32mc03x_i2c.o(i.i2c_dma_delay_over)
    i.i2c_dma_init                           0x00005b24   Section        0  lks32mc03x_i2c.o(i.i2c_dma_init)
    i.i2c_dma_state_over                     0x00005b64   Section        0  lks32mc03x_i2c.o(i.i2c_dma_state_over)
    i.i2c_dma_state_start                    0x00005b70   Section        0  lks32mc03x_i2c.o(i.i2c_dma_state_start)
    i2c_dma_state_start                      0x00005b71   Thumb Code     8  lks32mc03x_i2c.o(i.i2c_dma_state_start)
    i.i2c_dma_tx                             0x00005b7c   Section        0  lks32mc03x_i2c.o(i.i2c_dma_tx)
    i.lcd_init                               0x00005bd0   Section        0  lcd.o(i.lcd_init)
    i.lcd_show_all_clean                     0x00005c04   Section        0  lcd.o(i.lcd_show_all_clean)
    i.lcd_show_all_data                      0x00005c4c   Section        0  lcd.o(i.lcd_show_all_data)
    i.lcd_show_all_number                    0x00005c90   Section        0  lcd.o(i.lcd_show_all_number)
    i.lcd_show_constant_temperature          0x00005cf0   Section        0  lcd.o(i.lcd_show_constant_temperature)
    i.lcd_show_ones                          0x00005d0c   Section        0  lcd.o(i.lcd_show_ones)
    i.lcd_show_speed                         0x00005d18   Section        0  lcd.o(i.lcd_show_speed)
    i.lcd_show_temp_gear                     0x00005d34   Section        0  lcd.o(i.lcd_show_temp_gear)
    i.main                                   0x00005d98   Section        0  main.o(i.main)
    i.read_btn1_level                        0x00005dd0   Section        0  user_app.o(i.read_btn1_level)
    i.sys_init                               0x00005de4   Section        0  system_init.o(i.sys_init)
    i.vLoadForFlashing                       0x00005e08   Section        0  user_app.o(i.vLoadForFlashing)
    x$fpl$fmul                               0x00005e20   Section      176  fmul.o(x$fpl$fmul)
    .constdata                               0x00005ed0   Section       10  global_variable.o(.constdata)
    x$fpl$usenofp                            0x00005ed0   Section        0  usenofp.o(x$fpl$usenofp)
    .constdata                               0x00005eda   Section       16  global_variable.o(.constdata)
    .constdata                               0x00005eec   Section       44  global_variable.o(.constdata)
    .constdata                               0x00005f18   Section       36  global_variable.o(.constdata)
    .constdata                               0x00005f3c   Section     2500  heatcontrol.o(.constdata)
    .constdata                               0x00006900   Section      512  mc_math.o(.constdata)
    .constdata                               0x00006b00   Section       10  lcd.o(.constdata)
    num_table                                0x00006b00   Data          10  lcd.o(.constdata)
    .constdata                               0x00006b0a   Section      128  ddiv.o(.constdata)
    ddiv_reciptbl                            0x00006b0a   Data         128  ddiv.o(.constdata)
    .constdata                               0x00006b8a   Section       64  fdiv.o(.constdata)
    fdiv_tab                                 0x00006b8a   Data          64  fdiv.o(.constdata)
    .data                                    0x20000000   Section       12  state_machine.o(.data)
    .data                                    0x2000000c   Section       12  fault_detection.o(.data)
    t_nFlagCheck                             0x2000000e   Data           2  fault_detection.o(.data)
    .data                                    0x20000018   Section       12  heatcontrol.o(.data)
    .data                                    0x20000024   Section        4  foc_drive.o(.data)
    .data                                    0x20000028   Section        1  lks32mc03x_i2c.o(.data)
    i2c_dma_state                            0x20000028   Data           1  lks32mc03x_i2c.o(.data)
    .data                                    0x2000002c   Section       76  user_app.o(.data)
    FunStateCnt                              0x20000046   Data           2  user_app.o(.data)
    Temp_adc_get_temp                        0x20000048   Data           2  user_app.o(.data)
    Temp_adc_get                             0x2000004a   Data           2  user_app.o(.data)
    .data                                    0x20000078   Section       10  lcd.o(.data)
    gr                                       0x2000007b   Data           7  lcd.o(.data)
    .data                                    0x20000084   Section        4  button.o(.data)
    Head_Button                              0x20000084   Data           4  button.o(.data)
    .data                                    0x20000088   Section      104  fluxobserve.o(.data)
    motorControlFlag                         0x20000088   Data           1  fluxobserve.o(.data)
    iThetaErr                                0x200000a2   Data           2  fluxobserve.o(.data)
    iThetaErr1                               0x200000a4   Data           2  fluxobserve.o(.data)
    m_UmRohRef_1                             0x200000a6   Data           2  fluxobserve.o(.data)
    s32_udc_filt                             0x200000cc   Data           4  fluxobserve.o(.data)
    .data                                    0x200000f0   Section       62  onthefly.o(.data)
    sDppAccCnt                               0x200000f0   Data           1  onthefly.o(.data)
    sDppAccCnt                               0x200000f1   Data           1  onthefly.o(.data)
    BEMF_electAngleOld                       0x200000f4   Data           2  onthefly.o(.data)
    s16Dpp                                   0x200000f6   Data           2  onthefly.o(.data)
    m_Uab                                    0x200000f8   Data           2  onthefly.o(.data)
    m_Ubc                                    0x200000fa   Data           2  onthefly.o(.data)
    m_Uca                                    0x200000fc   Data           2  onthefly.o(.data)
    m_Ua                                     0x200000fe   Data           2  onthefly.o(.data)
    m_Ub                                     0x20000100   Data           2  onthefly.o(.data)
    m_Uc                                     0x20000102   Data           2  onthefly.o(.data)
    m_Ubt                                    0x20000104   Data           2  onthefly.o(.data)
    s32Dpp                                   0x20000114   Data           4  onthefly.o(.data)
    s32MotorCurrentMagfilt                   0x20000118   Data           4  onthefly.o(.data)
    s32MotorCurrentMagfilt1                  0x2000011c   Data           4  onthefly.o(.data)
    s32MotorCurrentMagDifAvg                 0x20000120   Data           4  onthefly.o(.data)
    .bss                                     0x20000130   Section       20  global_variable.o(.bss)
    .bss                                     0x20000144   Section       16  global_variable.o(.bss)
    .bss                                     0x20000154   Section      236  global_variable.o(.bss)
    .bss                                     0x20000240   Section       64  global_variable.o(.bss)
    .bss                                     0x20000280   Section       68  global_variable.o(.bss)
    .bss                                     0x200002c8   Section       88  global_variable.o(.bss)
    .bss                                     0x20000320   Section       36  global_variable.o(.bss)
    .bss                                     0x20000344   Section       24  global_variable.o(.bss)
    .bss                                     0x2000035c   Section       32  global_variable.o(.bss)
    .bss                                     0x2000037c   Section       32  global_variable.o(.bss)
    .bss                                     0x2000039c   Section       32  global_variable.o(.bss)
    .bss                                     0x200003bc   Section       32  global_variable.o(.bss)
    .bss                                     0x200003dc   Section       14  state_machine.o(.bss)
    .bss                                     0x200003ec   Section      182  fault_detection.o(.bss)
    .bss                                     0x200004a8   Section      112  powercalculation.o(.bss)
    .bss                                     0x20000518   Section      104  heatcontrol.o(.bss)
    .bss                                     0x20000580   Section      116  user_app.o(.bss)
    .bss                                     0x200005f4   Section      184  fluxobserve.o(.bss)
    .bss                                     0x200006ac   Section       96  libspace.o(.bss)
    HEAP                                     0x20000710   Section      512  startup_lks32mc03x.o(HEAP)
    Heap_Mem                                 0x20000710   Data         512  startup_lks32mc03x.o(HEAP)
    STACK                                    0x20000910   Section     1024  startup_lks32mc03x.o(STACK)
    Stack_Mem                                0x20000910   Data        1024  startup_lks32mc03x.o(STACK)
    __initial_sp                             0x20000d10   Data           0  startup_lks32mc03x.o(STACK)

    Global Symbols

    Symbol Name                              Value     Ov Type        Size  Object(Section)

    BuildAttributes$$THM_ISAv3M$S$PE$A:L22$X:L11$S22$IEEE1$IW$USESV6$~STKCKD$USESV7$~SHL$OSPACE$ROPI$EBA8$UX$STANDARDLIB$REQ8$PRES8$EABIv2 0x00000000   Number         0  anon$$obj.o ABSOLUTE
    __ARM_use_no_argv                        0x00000000   Number         0  main.o ABSOLUTE
    __Vectors                                0x00000000   Data           4  startup_lks32mc03x.o(RESET)
    __ARM_exceptions_init                     - Undefined Weak Reference
    __alloca_initialize                       - Undefined Weak Reference
    __arm_fini_                               - Undefined Weak Reference
    __arm_preinit_                            - Undefined Weak Reference
    __cpp_initialize__aeabi_                  - Undefined Weak Reference
    __cxa_finalize                            - Undefined Weak Reference
    __rt_locale                               - Undefined Weak Reference
    __sigvec_lookup                           - Undefined Weak Reference
    _atexit_init                              - Undefined Weak Reference
    _call_atexit_fns                          - Undefined Weak Reference
    _clock_init                               - Undefined Weak Reference
    _fp_trap_init                             - Undefined Weak Reference
    _fp_trap_shutdown                         - Undefined Weak Reference
    _get_lc_collate                           - Undefined Weak Reference
    _get_lc_ctype                             - Undefined Weak Reference
    _get_lc_monetary                          - Undefined Weak Reference
    _get_lc_numeric                           - Undefined Weak Reference
    _get_lc_time                              - Undefined Weak Reference
    _getenv_init                              - Undefined Weak Reference
    _handle_redirection                       - Undefined Weak Reference
    _init_alloc                               - Undefined Weak Reference
    _init_user_alloc                          - Undefined Weak Reference
    _initio                                   - Undefined Weak Reference
    _rand_init                                - Undefined Weak Reference
    _signal_finish                            - Undefined Weak Reference
    _signal_init                              - Undefined Weak Reference
    _terminate_alloc                          - Undefined Weak Reference
    _terminate_user_alloc                     - Undefined Weak Reference
    _terminateio                              - Undefined Weak Reference
    __Vectors_End                            0x000000c0   Data           0  startup_lks32mc03x.o(RESET)
    __Vectors_Size                           0x000000c0   Number         0  startup_lks32mc03x.o ABSOLUTE
    __main                                   0x000000c1   Thumb Code     8  __main.o(!!!main)
    __scatterload                            0x000000c9   Thumb Code     0  __scatter.o(!!!scatter)
    __scatterload_rt2                        0x000000c9   Thumb Code    52  __scatter.o(!!!scatter)
    __scatterload_rt2_thumb_only             0x000000c9   Thumb Code     0  __scatter.o(!!!scatter)
    __scatterload_null                       0x000000d9   Thumb Code     0  __scatter.o(!!!scatter)
    __scatterload_zeroinit                   0x00000105   Thumb Code    28  __scatter_zi.o(!!handler_zi)
    __rt_lib_init                            0x00000121   Thumb Code     0  libinit.o(.ARM.Collect$$libinit$$00000000)
    __rt_lib_init_alloca_1                   0x00000123   Thumb Code     0  libinit2.o(.ARM.Collect$$libinit$$0000002E)
    __rt_lib_init_argv_1                     0x00000123   Thumb Code     0  libinit2.o(.ARM.Collect$$libinit$$0000002C)
    __rt_lib_init_atexit_1                   0x00000123   Thumb Code     0  libinit2.o(.ARM.Collect$$libinit$$0000001B)
    __rt_lib_init_clock_1                    0x00000123   Thumb Code     0  libinit2.o(.ARM.Collect$$libinit$$00000021)
    __rt_lib_init_cpp_1                      0x00000123   Thumb Code     0  libinit2.o(.ARM.Collect$$libinit$$00000032)
    __rt_lib_init_exceptions_1               0x00000123   Thumb Code     0  libinit2.o(.ARM.Collect$$libinit$$00000030)
    __rt_lib_init_fp_1                       0x00000123   Thumb Code     0  libinit2.o(.ARM.Collect$$libinit$$00000002)
    __rt_lib_init_fp_trap_1                  0x00000123   Thumb Code     0  libinit2.o(.ARM.Collect$$libinit$$0000001F)
    __rt_lib_init_getenv_1                   0x00000123   Thumb Code     0  libinit2.o(.ARM.Collect$$libinit$$00000023)
    __rt_lib_init_heap_1                     0x00000123   Thumb Code     0  libinit2.o(.ARM.Collect$$libinit$$0000000A)
    __rt_lib_init_lc_collate_1               0x00000123   Thumb Code     0  libinit2.o(.ARM.Collect$$libinit$$00000011)
    __rt_lib_init_lc_ctype_1                 0x00000123   Thumb Code     0  libinit2.o(.ARM.Collect$$libinit$$00000013)
    __rt_lib_init_lc_monetary_1              0x00000123   Thumb Code     0  libinit2.o(.ARM.Collect$$libinit$$00000015)
    __rt_lib_init_lc_numeric_1               0x00000123   Thumb Code     0  libinit2.o(.ARM.Collect$$libinit$$00000017)
    __rt_lib_init_lc_time_1                  0x00000123   Thumb Code     0  libinit2.o(.ARM.Collect$$libinit$$00000019)
    __rt_lib_init_preinit_1                  0x00000123   Thumb Code     0  libinit2.o(.ARM.Collect$$libinit$$00000004)
    __rt_lib_init_rand_1                     0x00000123   Thumb Code     0  libinit2.o(.ARM.Collect$$libinit$$0000000E)
    __rt_lib_init_return                     0x00000123   Thumb Code     0  libinit2.o(.ARM.Collect$$libinit$$00000033)
    __rt_lib_init_signal_1                   0x00000123   Thumb Code     0  libinit2.o(.ARM.Collect$$libinit$$0000001D)
    __rt_lib_init_stdio_1                    0x00000123   Thumb Code     0  libinit2.o(.ARM.Collect$$libinit$$00000025)
    __rt_lib_init_user_alloc_1               0x00000123   Thumb Code     0  libinit2.o(.ARM.Collect$$libinit$$0000000C)
    __rt_lib_shutdown                        0x00000125   Thumb Code     0  libshutdown.o(.ARM.Collect$$libshutdown$$00000000)
    __rt_lib_shutdown_cpp_1                  0x00000127   Thumb Code     0  libshutdown2.o(.ARM.Collect$$libshutdown$$00000004)
    __rt_lib_shutdown_fini_1                 0x00000127   Thumb Code     0  libshutdown2.o(.ARM.Collect$$libshutdown$$00000002)
    __rt_lib_shutdown_fp_trap_1              0x00000127   Thumb Code     0  libshutdown2.o(.ARM.Collect$$libshutdown$$00000009)
    __rt_lib_shutdown_heap_1                 0x00000127   Thumb Code     0  libshutdown2.o(.ARM.Collect$$libshutdown$$00000011)
    __rt_lib_shutdown_return                 0x00000127   Thumb Code     0  libshutdown2.o(.ARM.Collect$$libshutdown$$00000012)
    __rt_lib_shutdown_signal_1               0x00000127   Thumb Code     0  libshutdown2.o(.ARM.Collect$$libshutdown$$0000000C)
    __rt_lib_shutdown_stdio_1                0x00000127   Thumb Code     0  libshutdown2.o(.ARM.Collect$$libshutdown$$00000006)
    __rt_lib_shutdown_user_alloc_1           0x00000127   Thumb Code     0  libshutdown2.o(.ARM.Collect$$libshutdown$$0000000E)
    __rt_entry                               0x00000129   Thumb Code     0  __rtentry.o(.ARM.Collect$$rtentry$$00000000)
    __rt_entry_presh_1                       0x00000129   Thumb Code     0  __rtentry2.o(.ARM.Collect$$rtentry$$00000002)
    __rt_entry_sh                            0x00000129   Thumb Code     0  __rtentry4.o(.ARM.Collect$$rtentry$$00000004)
    __rt_entry_li                            0x0000012f   Thumb Code     0  __rtentry2.o(.ARM.Collect$$rtentry$$0000000A)
    __rt_entry_postsh_1                      0x0000012f   Thumb Code     0  __rtentry2.o(.ARM.Collect$$rtentry$$00000009)
    __rt_entry_main                          0x00000133   Thumb Code     0  __rtentry2.o(.ARM.Collect$$rtentry$$0000000D)
    __rt_entry_postli_1                      0x00000133   Thumb Code     0  __rtentry2.o(.ARM.Collect$$rtentry$$0000000C)
    __rt_exit                                0x0000013b   Thumb Code     0  rtexit.o(.ARM.Collect$$rtexit$$00000000)
    __rt_exit_ls                             0x0000013d   Thumb Code     0  rtexit2.o(.ARM.Collect$$rtexit$$00000003)
    __rt_exit_prels_1                        0x0000013d   Thumb Code     0  rtexit2.o(.ARM.Collect$$rtexit$$00000002)
    __rt_exit_exit                           0x00000141   Thumb Code     0  rtexit2.o(.ARM.Collect$$rtexit$$00000004)
    __aeabi_memcpy4                          0x00000149   Thumb Code    56  rt_memcpy.o(.emb_text)
    __aeabi_memcpy8                          0x00000149   Thumb Code     0  rt_memcpy.o(.emb_text)
    Reset_Handler                            0x00000181   Thumb Code    14  startup_lks32mc03x.o(.text)
    NMI_Handler                              0x0000018f   Thumb Code     2  startup_lks32mc03x.o(.text)
    HardFault_Handler                        0x00000191   Thumb Code     2  startup_lks32mc03x.o(.text)
    SVC_Handler                              0x00000193   Thumb Code     2  startup_lks32mc03x.o(.text)
    PendSV_Handler                           0x00000195   Thumb Code     2  startup_lks32mc03x.o(.text)
    __user_initial_stackheap                 0x0000019d   Thumb Code     0  startup_lks32mc03x.o(.text)
    __aeabi_llsl                             0x000001c5   Thumb Code    32  llshl.o(.text)
    _ll_shift_l                              0x000001c5   Thumb Code     0  llshl.o(.text)
    __aeabi_lasr                             0x000001e5   Thumb Code    38  llsshr.o(.text)
    _ll_sshift_r                             0x000001e5   Thumb Code     0  llsshr.o(.text)
    __aeabi_lmul                             0x0000020b   Thumb Code    48  llmul.o(.text)
    _ll_mul                                  0x0000020b   Thumb Code     0  llmul.o(.text)
    __aeabi_ldivmod                          0x0000023b   Thumb Code   112  llsdiv.o(.text)
    _ll_sdiv                                 0x0000023b   Thumb Code     0  llsdiv.o(.text)
    __aeabi_memcpy                           0x000002ab   Thumb Code   130  rt_memcpy.o(.text)
    __rt_memcpy                              0x000002ab   Thumb Code     0  rt_memcpy.o(.text)
    _memset_w                                0x0000032d   Thumb Code    26  rt_memclr.o(.text)
    _memset                                  0x00000347   Thumb Code    30  rt_memclr.o(.text)
    __aeabi_memclr                           0x00000365   Thumb Code     4  rt_memclr.o(.text)
    __rt_memclr                              0x00000365   Thumb Code     0  rt_memclr.o(.text)
    __aeabi_memclr4                          0x00000369   Thumb Code     0  rt_memclr.o(.text)
    __aeabi_memclr8                          0x00000369   Thumb Code     0  rt_memclr.o(.text)
    __rt_memclr_w                            0x00000369   Thumb Code     4  rt_memclr.o(.text)
    __aeabi_uidiv                            0x0000036d   Thumb Code     0  aeabi_sdiv.o(.text)
    __aeabi_uidivmod                         0x0000036d   Thumb Code    20  aeabi_sdiv.o(.text)
    __aeabi_idiv                             0x00000381   Thumb Code     0  aeabi_sdiv.o(.text)
    __aeabi_idivmod                          0x00000381   Thumb Code   326  aeabi_sdiv.o(.text)
    __use_two_region_memory                  0x000004c7   Thumb Code     2  heapauxi.o(.text)
    __rt_heap_escrow$2region                 0x000004c9   Thumb Code     2  heapauxi.o(.text)
    __rt_heap_expand$2region                 0x000004cb   Thumb Code     2  heapauxi.o(.text)
    __aeabi_d2f                              0x000004cd   Thumb Code     0  d2f.o(.text)
    _d2f                                     0x000004cd   Thumb Code   120  d2f.o(.text)
    __aeabi_dadd                             0x00000841   Thumb Code     0  daddsub.o(.text)
    _dadd                                    0x00000841   Thumb Code    26  daddsub.o(.text)
    __aeabi_dsub                             0x0000085b   Thumb Code     0  daddsub.o(.text)
    _dsub                                    0x0000085b   Thumb Code    22  daddsub.o(.text)
    __aeabi_drsub                            0x00000871   Thumb Code     0  daddsub.o(.text)
    _drsb                                    0x00000871   Thumb Code    28  daddsub.o(.text)
    __aeabi_ddiv                             0x000008a1   Thumb Code     0  ddiv.o(.text)
    _ddiv                                    0x000008a1   Thumb Code  1072  ddiv.o(.text)
    _drdiv                                   0x00000cd1   Thumb Code    20  ddiv.o(.text)
    __aeabi_d2iz                             0x00000ce9   Thumb Code     0  dfixi.o(.text)
    _dfix                                    0x00000ce9   Thumb Code    98  dfixi.o(.text)
    __aeabi_d2uiz                            0x00000d55   Thumb Code     0  dfixui.o(.text)
    _dfixu                                   0x00000d55   Thumb Code    68  dfixui.o(.text)
    __aeabi_i2d_normalise                    0x00000d9d   Thumb Code    66  dflti.o(.text)
    __aeabi_i2d                              0x00000ddf   Thumb Code    16  dflti.o(.text)
    _dflt                                    0x00000ddf   Thumb Code     0  dflti.o(.text)
    __aeabi_ui2d                             0x00000def   Thumb Code     6  dflti.o(.text)
    _dfltu                                   0x00000def   Thumb Code     0  dflti.o(.text)
    __aeabi_l2d_normalise                    0x00000df5   Thumb Code   104  dfltl.o(.text)
    __aeabi_l2d                              0x00000e5d   Thumb Code    20  dfltl.o(.text)
    _ll_sto_d                                0x00000e5d   Thumb Code     0  dfltl.o(.text)
    __aeabi_ul2d                             0x00000e71   Thumb Code     4  dfltl.o(.text)
    _ll_uto_d                                0x00000e71   Thumb Code     0  dfltl.o(.text)
    __aeabi_dmul                             0x00000e79   Thumb Code     0  dmul.o(.text)
    _dmul                                    0x00000e79   Thumb Code   558  dmul.o(.text)
    __aeabi_f2d                              0x000010c1   Thumb Code     0  f2d.o(.text)
    _f2d                                     0x000010c1   Thumb Code    80  f2d.o(.text)
    __aeabi_fdiv                             0x00001115   Thumb Code     0  fdiv.o(.text)
    _fdiv                                    0x00001115   Thumb Code   334  fdiv.o(.text)
    _frdiv                                   0x00001263   Thumb Code     8  fdiv.o(.text)
    __aeabi_f2iz                             0x00001275   Thumb Code     0  ffixi.o(.text)
    _ffix                                    0x00001275   Thumb Code    76  ffixi.o(.text)
    __aeabi_i2f_normalise                    0x000012c1   Thumb Code    72  fflti.o(.text)
    __aeabi_i2f                              0x00001309   Thumb Code    16  fflti.o(.text)
    _fflt                                    0x00001309   Thumb Code     0  fflti.o(.text)
    __aeabi_ui2f                             0x00001319   Thumb Code     6  fflti.o(.text)
    _ffltu                                   0x00001319   Thumb Code     0  fflti.o(.text)
    __aeabi_uldivmod                         0x0000131f   Thumb Code   258  lludiv.o(.text)
    _ll_udiv                                 0x0000131f   Thumb Code     0  lludiv.o(.text)
    __user_setup_stackheap                   0x00001421   Thumb Code    62  sys_stackheap_outer.o(.text)
    exit                                     0x0000145f   Thumb Code    16  exit.o(.text)
    __user_libspace                          0x00001471   Thumb Code     8  libspace.o(.text)
    __user_perproc_libspace                  0x00001471   Thumb Code     0  libspace.o(.text)
    __user_perthread_libspace                0x00001471   Thumb Code     0  libspace.o(.text)
    _sys_exit                                0x00001479   Thumb Code     8  sys_exit.o(.text)
    __I$use$semihosting                      0x00001485   Thumb Code     0  use_no_semi.o(.text)
    __use_no_semihosting_swi                 0x00001485   Thumb Code     2  use_no_semi.o(.text)
    __decompress                             0x00001487   Thumb Code     0  __dczerorl.o(.text)
    __decompress0                            0x00001487   Thumb Code    58  __dczerorl.o(.text)
    __semihosting_library_function           0x00001487   Thumb Code     0  indicate_semi.o(.text)
    ADC_IRQHandler                           0x000014c1   Thumb Code   126  interrupt.o(i.ADC_IRQHandler)
    ADC_Init                                 0x00001569   Thumb Code    72  lks32mc03x_adc.o(i.ADC_Init)
    ADC_NormalModeCFG                        0x000015b1   Thumb Code    30  signalchain_sample.o(i.ADC_NormalModeCFG)
    ADC_StructInit                           0x000015dd   Thumb Code    32  lks32mc03x_adc.o(i.ADC_StructInit)
    ADC_init                                 0x000015fd   Thumb Code    76  hardware_init.o(i.ADC_init)
    AdcSampleCal                             0x00001655   Thumb Code    78  foc_drive.o(i.AdcSampleCal)
    App2CoreCurTrans                         0x000016c1   Thumb Code    12  app2core.o(i.App2CoreCurTrans)
    App2CoreFreqTrans                        0x000016d1   Thumb Code    12  app2core.o(i.App2CoreFreqTrans)
    AutoFieldWeakReg                         0x000016e1   Thumb Code    78  fluxobserve.o(i.AutoFieldWeakReg)
    Btn1_Dowm_CallBack                       0x0000173d   Thumb Code    42  user_app.o(i.Btn1_Dowm_CallBack)
    Button_Attach                            0x0000176d   Thumb Code    30  button.o(i.Button_Attach)
    Button_Create                            0x0000178b   Thumb Code   100  button.o(i.Button_Create)
    Button_Cycle_Process                     0x000017ef   Thumb Code   318  button.o(i.Button_Cycle_Process)
    Button_Process                           0x0000192d   Thumb Code    22  button.o(i.Button_Process)
    CMP_IRQHandler                           0x00001949   Thumb Code    88  interrupt.o(i.CMP_IRQHandler)
    CMP_Init                                 0x000019ad   Thumb Code   206  lks32mc03x_cmp.o(i.CMP_Init)
    CMP_StructInit                           0x00001a8d   Thumb Code    64  lks32mc03x_cmp.o(i.CMP_StructInit)
    CMP_init                                 0x00001acd   Thumb Code    76  hardware_init.o(i.CMP_init)
    Clock_Init                               0x00001b19   Thumb Code    26  hardware_init.o(i.Clock_Init)
    CurrentAmplitudeCalc                     0x00001b41   Thumb Code    94  fault_detection.o(i.CurrentAmplitudeCalc)
    CurrentLoopAxisD_Set                     0x00001ba1   Thumb Code    56  state_machine.o(i.CurrentLoopAxisD_Set)
    CurrentLoopAxisQ_Set                     0x00001be1   Thumb Code    56  state_machine.o(i.CurrentLoopAxisQ_Set)
    CurrentLoopReg                           0x00001c21   Thumb Code    66  foc_drive.o(i.CurrentLoopReg)
    CurrentMagCalc                           0x00001c69   Thumb Code    16  mc_math.o(i.CurrentMagCalc)
    CurrentOffsetCalibration                 0x00001c7d   Thumb Code   228  system_init.o(i.CurrentOffsetCalibration)
    CurrentPIRegulator                       0x00001d7d   Thumb Code    52  pid_regulators.o(i.CurrentPIRegulator)
    DAC_Init                                 0x00001db1   Thumb Code    18  hardware_init.o(i.DAC_Init)
    DMA_CHx_EN                               0x00001dc3   Thumb Code    24  lks32mc03x_dma.o(i.DMA_CHx_EN)
    DMA_IRQHandler                           0x00001ddb   Thumb Code     2  interrupt.o(i.DMA_IRQHandler)
    DMA_Init                                 0x00001ddd   Thumb Code   122  lks32mc03x_dma.o(i.DMA_Init)
    DcVoltPerUnitCalc                        0x00001e61   Thumb Code    60  fluxobserve.o(i.DcVoltPerUnitCalc)
    DcVoltPerUnitCalcInt                     0x00001ead   Thumb Code    62  fluxobserve.o(i.DcVoltPerUnitCalcInt)
    EraseSector                              0x00001f05   Thumb Code    98  lks32mc03x_flash.o(i.EraseSector)
    EraseWriteFlash                          0x00001f91   Thumb Code    58  user_app.o(i.EraseWriteFlash)
    FOC_InitstruParam                        0x00001fdd   Thumb Code    88  foc_drive.o(i.FOC_InitstruParam)
    FOC_Model                                0x00002049   Thumb Code   150  foc_drive.o(i.FOC_Model)
    FWLoopPIReg                              0x000020e9   Thumb Code    64  fluxobserve.o(i.FWLoopPIReg)
    FaultCheck                               0x00002129   Thumb Code   182  fault_detection.o(i.FaultCheck)
    FaultCurrentCheck                        0x00002201   Thumb Code    62  fault_detection.o(i.FaultCurrentCheck)
    FaultInit                                0x00002249   Thumb Code   208  fault_detection.o(i.FaultInit)
    FaultPhaseCheck                          0x00002341   Thumb Code    82  fault_detection.o(i.FaultPhaseCheck)
    FaultRecover                             0x000023a1   Thumb Code   110  fault_detection.o(i.FaultRecover)
    FaultRecoverInit                         0x00002421   Thumb Code    52  fault_detection.o(i.FaultRecoverInit)
    FaultStallCheck                          0x00002465   Thumb Code   440  fault_detection.o(i.FaultStallCheck)
    FaultStartCheck                          0x0000262d   Thumb Code   174  fault_detection.o(i.FaultStartCheck)
    FaultTempCheck                           0x000026fd   Thumb Code     2  fault_detection.o(i.FaultTempCheck)
    FaultVoltageCheck                        0x00002701   Thumb Code   102  fault_detection.o(i.FaultVoltageCheck)
    FindQNum                                 0x00002775   Thumb Code    28  fluxobserve.o(i.FindQNum)
    FluxObserveInit                          0x00002791   Thumb Code    74  system_init.o(i.FluxObserveInit)
    FluxObserveParaCalc                      0x000027f5   Thumb Code  1582  fluxobserve.o(i.FluxObserveParaCalc)
    Flux_OBS_ParaInit                        0x00002e51   Thumb Code    30  fluxobserve.o(i.Flux_OBS_ParaInit)
    FunStateCharge                           0x00002e79   Thumb Code   162  user_app.o(i.FunStateCharge)
    GPIO_IRQHandler                          0x00002f29   Thumb Code     2  interrupt.o(i.GPIO_IRQHandler)
    GPIO_Init                                0x00002f2b   Thumb Code   128  lks32mc03x_gpio.o(i.GPIO_Init)
    GPIO_PinAFConfig                         0x00002fad   Thumb Code   226  lks32mc03x_gpio.o(i.GPIO_PinAFConfig)
    GPIO_ReadInputDataBit                    0x00003099   Thumb Code    14  lks32mc03x_gpio.o(i.GPIO_ReadInputDataBit)
    GPIO_ResetBits                           0x000030a7   Thumb Code     4  lks32mc03x_gpio.o(i.GPIO_ResetBits)
    GPIO_SetBits                             0x000030ab   Thumb Code     4  lks32mc03x_gpio.o(i.GPIO_SetBits)
    GPIO_StructInit                          0x000030af   Thumb Code    12  lks32mc03x_gpio.o(i.GPIO_StructInit)
    GPIO_init                                0x000030bd   Thumb Code    90  hardware_init.o(i.GPIO_init)
    GetHeartNTCTemp                          0x0000311d   Thumb Code    48  user_app.o(i.GetHeartNTCTemp)
    GetVdcSpeed                              0x00003159   Thumb Code    96  user_app.o(i.GetVdcSpeed)
    Get_Power                                0x000031d1   Thumb Code    16  user_app.o(i.Get_Power)
    Get_tempreture_num                       0x000031e9   Thumb Code    60  user_app.o(i.Get_tempreture_num)
    HALL_IRQHandler                          0x0000323d   Thumb Code     2  interrupt.o(i.HALL_IRQHandler)
    HALL_Init                                0x00003241   Thumb Code    76  lks32mc03x_hall.o(i.HALL_Init)
    HALL_Perip_Init                          0x00003291   Thumb Code    54  hardware_init.o(i.HALL_Perip_Init)
    HALL_StructInit                          0x000032cd   Thumb Code    32  lks32mc03x_hall.o(i.HALL_StructInit)
    Hardware_init                            0x000032f1   Thumb Code   162  hardware_init.o(i.Hardware_init)
    HeaterControl                            0x000033a5   Thumb Code   284  heatcontrol.o(i.HeaterControl)
    HeaterControl_1ms                        0x000034e5   Thumb Code   176  heatcontrol.o(i.HeaterControl_1ms)
    HeaterTemperature_Control                0x000035a1   Thumb Code   194  heatcontrol.o(i.HeaterTemperature_Control)
    I2C_IRQHandler                           0x00003675   Thumb Code    14  interrupt.o(i.I2C_IRQHandler)
    I2C_Init                                 0x00003689   Thumb Code   128  lks32mc03x_i2c.o(i.I2C_Init)
    I2C_StructInit                           0x00003719   Thumb Code    28  lks32mc03x_i2c.o(i.I2C_StructInit)
    I2C_init                                 0x00003739   Thumb Code    48  hardware_init.o(i.I2C_init)
    IIC_Write_Reg                            0x0000376d   Thumb Code    22  lcd.o(i.IIC_Write_Reg)
    Key_Speed                                0x00003789   Thumb Code    46  user_app.o(i.Key_Speed)
    LCD_Process                              0x000037c1   Thumb Code   154  user_app.o(i.LCD_Process)
    LowPassControl                           0x00003865   Thumb Code    44  powercalculation.o(i.LowPassControl)
    MCPWM0_IRQHandler                        0x00003891   Thumb Code    42  interrupt.o(i.MCPWM0_IRQHandler)
    MCPWM0_RegUpdate                         0x000038c5   Thumb Code    66  signalchain_sample.o(i.MCPWM0_RegUpdate)
    MCPWM1_IRQHandler                        0x00003915   Thumb Code     2  interrupt.o(i.MCPWM1_IRQHandler)
    MCPWM_Init                               0x00003919   Thumb Code   540  lks32mc03x_mcpwm.o(i.MCPWM_Init)
    MCPWM_StructInit                         0x00003b41   Thumb Code    10  lks32mc03x_mcpwm.o(i.MCPWM_StructInit)
    MCPWM_init                               0x00003b4d   Thumb Code   146  hardware_init.o(i.MCPWM_init)
    MemoryRestore                            0x00003bf5   Thumb Code    34  user_app.o(i.MemoryRestore)
    ModuCircle_Limitation                    0x00003c1d   Thumb Code   152  fluxobserve.o(i.ModuCircle_Limitation)
    NTC_R_change                             0x00003ccd   Thumb Code  1456  user_app.o(i.NTC_R_change)
    OnTheFlyDetectInit                       0x0000427d   Thumb Code    12  fluxobserve.o(i.OnTheFlyDetectInit)
    OpenCloseAngleSwitch                     0x0000428d   Thumb Code    54  fluxobserve.o(i.OpenCloseAngleSwitch)
    OpenLoopCurRamp                          0x000042d9   Thumb Code    64  process_control.o(i.OpenLoopCurRamp)
    PGA_Init                                 0x00004319   Thumb Code    36  hardware_init.o(i.PGA_Init)
    PWMOutputs                               0x00004345   Thumb Code    34  lks32mc03x_mcpwm.o(i.PWMOutputs)
    PmsmFluxObIni                            0x00004375   Thumb Code   136  fluxobserve.o(i.PmsmFluxObIni)
    PmsmFluxObserve                          0x00004415   Thumb Code   194  fluxobserve.o(i.PmsmFluxObserve)
    PowerCalc                                0x000044f1   Thumb Code    66  powercalculation.o(i.PowerCalc)
    ProgramPage                              0x00004545   Thumb Code   210  lks32mc03x_flash.o(i.ProgramPage)
    SPI_IRQHandler                           0x00004639   Thumb Code     2  interrupt.o(i.SPI_IRQHandler)
    SVPWM_2ShuntGEN                          0x0000463d   Thumb Code   310  lib_svpwm.o(i.SVPWM_2ShuntGEN)
    SVPWM_2ShuntGetPhaseCurrent              0x00004779   Thumb Code    46  signalchain_sample.o(i.SVPWM_2ShuntGetPhaseCurrent)
    SW_IRQHandler                            0x000047ad   Thumb Code     2  interrupt.o(i.SW_IRQHandler)
    SYS_AnalogModuleClockCmd                 0x000047b1   Thumb Code    60  lks32mc03x_sys.o(i.SYS_AnalogModuleClockCmd)
    SYS_ModuleClockCmd                       0x000047f5   Thumb Code    30  lks32mc03x_sys.o(i.SYS_ModuleClockCmd)
    SYS_SoftResetModule                      0x0000481d   Thumb Code    16  lks32mc03x_sys.o(i.SYS_SoftResetModule)
    Search_Button                            0x00004835   Thumb Code    14  button.o(i.Search_Button)
    SoftDelay                                0x00004849   Thumb Code    24  task_scheduler.o(i.SoftDelay)
    SpeedLoopReg                             0x00004861   Thumb Code    44  foc_drive.o(i.SpeedLoopReg)
    SpeedLoop_Set                            0x00004895   Thumb Code    40  state_machine.o(i.SpeedLoop_Set)
    SpeedPIRegulator                         0x000048bd   Thumb Code   214  pid_regulators.o(i.SpeedPIRegulator)
    SpeedReferenceGen                        0x00004993   Thumb Code    46  process_control.o(i.SpeedReferenceGen)
    StateAlign                               0x000049c1   Thumb Code    90  state_machine.o(i.StateAlign)
    StateCharge                              0x00004a39   Thumb Code   244  state_machine.o(i.StateCharge)
    StateFault                               0x00004b51   Thumb Code    22  state_machine.o(i.StateFault)
    StateInit                                0x00004b71   Thumb Code   522  state_machine.o(i.StateInit)
    StateOpen                                0x00004de5   Thumb Code   196  state_machine.o(i.StateOpen)
    StateRun                                 0x00004ed5   Thumb Code   468  state_machine.o(i.StateRun)
    StateStop                                0x000050f1   Thumb Code    28  state_machine.o(i.StateStop)
    SysTick_Handler                          0x0000513d   Thumb Code     2  interrupt.o(i.SysTick_Handler)
    Sys_State_Machine                        0x00005141   Thumb Code   240  state_machine.o(i.Sys_State_Machine)
    SystemInit                               0x00005251   Thumb Code     8  hardware_init.o(i.SystemInit)
    TIMER0_IRQHandler                        0x00005259   Thumb Code     2  interrupt.o(i.TIMER0_IRQHandler)
    TIMER1_IRQHandler                        0x0000525d   Thumb Code    44  interrupt.o(i.TIMER1_IRQHandler)
    TIM_TimerInit                            0x00005291   Thumb Code   162  lks32mc03x_timer.o(i.TIM_TimerInit)
    TIM_TimerStrutInit                       0x0000533d   Thumb Code    52  lks32mc03x_timer.o(i.TIM_TimerStrutInit)
    Task_Scheduler                           0x00005371   Thumb Code   144  task_scheduler.o(i.Task_Scheduler)
    TempSensor_Init                          0x00005419   Thumb Code    18  hardware_init.o(i.TempSensor_Init)
    Temp_circulation                         0x00005435   Thumb Code    52  user_app.o(i.Temp_circulation)
    Temp_demarcate                           0x0000546d   Thumb Code   386  user_app.o(i.Temp_demarcate)
    Trig_Functions                           0x00005621   Thumb Code   120  mc_math.o(i.Trig_Functions)
    UART_IRQHandler                          0x0000569d   Thumb Code     2  interrupt.o(i.UART_IRQHandler)
    USER_APP_vTick10ms                       0x000056a1   Thumb Code    40  user_app.o(i.USER_APP_vTick10ms)
    USER_APP_vTick1ms                        0x000056d5   Thumb Code    16  user_app.o(i.USER_APP_vTick1ms)
    USER_APP_vTick20ms                       0x000056e5   Thumb Code    12  user_app.o(i.USER_APP_vTick20ms)
    USER_APP_vTick500ms                      0x000056f1   Thumb Code   324  user_app.o(i.USER_APP_vTick500ms)
    USER_GPIO_Init                           0x0000583d   Thumb Code   150  user_app.o(i.USER_GPIO_Init)
    USER_Init                                0x000058d9   Thumb Code    62  user_app.o(i.USER_Init)
    UTimer_init                              0x00005935   Thumb Code    36  hardware_init.o(i.UTimer_init)
    User2AppAngleTrans                       0x0000595d   Thumb Code    30  app2core.o(i.User2AppAngleTrans)
    User2AppCurTrans                         0x00005981   Thumb Code    28  app2core.o(i.User2AppCurTrans)
    User2AppFreqTrans                        0x000059a1   Thumb Code    28  app2core.o(i.User2AppFreqTrans)
    User2AppVolTrans                         0x000059c1   Thumb Code    36  app2core.o(i.User2AppVolTrans)
    WAKE_IRQHandler                          0x000059f9   Thumb Code     2  interrupt.o(i.WAKE_IRQHandler)
    __ARM_common_ll_mulss                    0x000059fb   Thumb Code    48  fluxobserve.o(i.__ARM_common_ll_mulss)
    __ARM_common_ll_muluu                    0x00005a2b   Thumb Code    48  fluxobserve.o(i.__ARM_common_ll_muluu)
    __ARM_common_switch8                     0x00005a5b   Thumb Code    26  state_machine.o(i.__ARM_common_switch8)
    i2c_dma_init                             0x00005b25   Thumb Code    58  lks32mc03x_i2c.o(i.i2c_dma_init)
    i2c_dma_state_over                       0x00005b65   Thumb Code     8  lks32mc03x_i2c.o(i.i2c_dma_state_over)
    i2c_dma_tx                               0x00005b7d   Thumb Code    74  lks32mc03x_i2c.o(i.i2c_dma_tx)
    lcd_init                                 0x00005bd1   Thumb Code    48  lcd.o(i.lcd_init)
    lcd_show_all_clean                       0x00005c05   Thumb Code    66  lcd.o(i.lcd_show_all_clean)
    lcd_show_all_data                        0x00005c4d   Thumb Code    62  lcd.o(i.lcd_show_all_data)
    lcd_show_all_number                      0x00005c91   Thumb Code    90  lcd.o(i.lcd_show_all_number)
    lcd_show_constant_temperature            0x00005cf1   Thumb Code    24  lcd.o(i.lcd_show_constant_temperature)
    lcd_show_ones                            0x00005d0d   Thumb Code     8  lcd.o(i.lcd_show_ones)
    lcd_show_speed                           0x00005d19   Thumb Code    22  lcd.o(i.lcd_show_speed)
    lcd_show_temp_gear                       0x00005d35   Thumb Code    90  lcd.o(i.lcd_show_temp_gear)
    main                                     0x00005d99   Thumb Code    44  main.o(i.main)
    read_btn1_level                          0x00005dd1   Thumb Code    14  user_app.o(i.read_btn1_level)
    sys_init                                 0x00005de5   Thumb Code    26  system_init.o(i.sys_init)
    vLoadForFlashing                         0x00005e09   Thumb Code    20  user_app.o(i.vLoadForFlashing)
    __aeabi_fmul                             0x00005e21   Thumb Code     0  fmul.o(x$fpl$fmul)
    _fmul                                    0x00005e21   Thumb Code   172  fmul.o(x$fpl$fmul)
    __I$use$fp                               0x00005ed0   Number         0  usenofp.o(x$fpl$usenofp)
    sVersion                                 0x00005ed0   Data          10  global_variable.o(.constdata)
    struFOC_ConstParam                       0x00005eda   Data          16  global_variable.o(.constdata)
    struMotorParam                           0x00005eec   Data          44  global_variable.o(.constdata)
    struBoardParam                           0x00005f18   Data          36  global_variable.o(.constdata)
    HotTab                                   0x00005f3c   Data        2500  heatcontrol.o(.constdata)
    hSin_Cos_Table                           0x00006900   Data         512  mc_math.o(.constdata)
    Region$$Table$$Base                      0x00006bcc   Number         0  anon$$obj.o(Region$$Table)
    Region$$Table$$Limit                     0x00006bec   Number         0  anon$$obj.o(Region$$Table)
    BrakeFlag                                0x20000000   Data           1  state_machine.o(.data)
    testspeed                                0x20000001   Data           1  state_machine.o(.data)
    g_uDirCheckStep                          0x20000002   Data           2  state_machine.o(.data)
    testmkp                                  0x20000004   Data           2  state_machine.o(.data)
    testmki                                  0x20000006   Data           2  state_machine.o(.data)
    testtkp                                  0x20000008   Data           2  state_machine.o(.data)
    testtki                                  0x2000000a   Data           2  state_machine.o(.data)
    SoftCur_Cnt                              0x2000000c   Data           2  fault_detection.o(.data)
    stru_Faults                              0x20000010   Data           2  fault_detection.o(.data)
    struImaxCurrent                          0x20000012   Data           6  fault_detection.o(.data)
    FRS_ON                                   0x20000018   Data           1  heatcontrol.o(.data)
    Ubusmaxcnt                               0x20000019   Data           1  heatcontrol.o(.data)
    Ubusmaxsumcnt                            0x2000001a   Data           1  heatcontrol.o(.data)
    Ubusmax                                  0x2000001c   Data           2  heatcontrol.o(.data)
    Ubusmaxsum                               0x20000020   Data           4  heatcontrol.o(.data)
    Mag_nCurr                                0x20000024   Data           2  foc_drive.o(.data)
    watchiq                                  0x20000026   Data           2  foc_drive.o(.data)
    tempreture_filer_cnt                     0x2000002c   Data           1  user_app.o(.data)
    tempreture_change_flag                   0x2000002d   Data           1  user_app.o(.data)
    TempGear                                 0x2000002e   Data           1  user_app.o(.data)
    TempGearOld                              0x2000002f   Data           1  user_app.o(.data)
    iTargetGear                              0x20000030   Data           1  user_app.o(.data)
    AutoTemp                                 0x20000031   Data           1  user_app.o(.data)
    CrossDownAcState_Old                     0x20000032   Data           1  user_app.o(.data)
    Cold_Show_Flag                           0x20000033   Data           1  user_app.o(.data)
    WaveCnt                                  0x20000034   Data           1  user_app.o(.data)
    WaveCnt1                                 0x20000035   Data           1  user_app.o(.data)
    Key_Speed_state                          0x20000036   Data           1  user_app.o(.data)
    Key_Speed_state_cnt                      0x20000037   Data           1  user_app.o(.data)
    TempGear_memory                          0x20000038   Data           1  user_app.o(.data)
    Memorymessag_eraseflg                    0x20000039   Data           1  user_app.o(.data)
    tempreture_show_flag                     0x2000003a   Data           1  user_app.o(.data)
    tempreture_show_filerCnt                 0x2000003b   Data           1  user_app.o(.data)
    tempreture_num_old                       0x2000003c   Data           2  user_app.o(.data)
    tempreture_numOld                        0x2000003e   Data           2  user_app.o(.data)
    iTargetGearold                           0x20000040   Data           2  user_app.o(.data)
    LCD_frist_flag                           0x20000042   Data           2  user_app.o(.data)
    uDCfil                                   0x20000044   Data           2  user_app.o(.data)
    tempreture_num                           0x2000004c   Data           2  user_app.o(.data)
    Cold_Show_Delay                          0x2000004e   Data           2  user_app.o(.data)
    Temp_demarcate_value                     0x20000050   Data           2  user_app.o(.data)
    Temp_demarcate_value_old                 0x20000052   Data           2  user_app.o(.data)
    t_VdcSpdCoef                             0x20000054   Data           2  user_app.o(.data)
    flag_gear_add                            0x20000058   Data           4  user_app.o(.data)
    AutoTemp_gear_old                        0x2000005c   Data           4  user_app.o(.data)
    s32uDCfil                                0x20000060   Data           4  user_app.o(.data)
    autoTemp_cnt                             0x20000064   Data           4  user_app.o(.data)
    AutoTemp_gear                            0x20000068   Data           4  user_app.o(.data)
    Memorymsg                                0x2000006c   Data           4  user_app.o(.data)
    remotor_memory                           0x20000070   Data           4  user_app.o(.data)
    tempreture                               0x20000074   Data           4  user_app.o(.data)
    ADDRESS                                  0x20000078   Data           1  lcd.o(.data)
    Tx_data_tbl                              0x20000079   Data           2  lcd.o(.data)
    g_FluxObsMode                            0x2000008a   Data           2  fluxobserve.o(.data)
    g_FluxObsFreqSegSet                      0x2000008c   Data           2  fluxobserve.o(.data)
    uPWM1msTick                              0x2000008e   Data           2  fluxobserve.o(.data)
    uFreq1msM                                0x20000090   Data           2  fluxobserve.o(.data)
    gCnt11111                                0x20000092   Data           2  fluxobserve.o(.data)
    AFWR_KP                                  0x20000094   Data           2  fluxobserve.o(.data)
    AFWR_KI                                  0x20000096   Data           2  fluxobserve.o(.data)
    ATWR_KP                                  0x20000098   Data           2  fluxobserve.o(.data)
    ATWR_KI                                  0x2000009a   Data           2  fluxobserve.o(.data)
    gUdcUtz                                  0x2000009c   Data           2  fluxobserve.o(.data)
    gPmWeakId                                0x2000009e   Data           2  fluxobserve.o(.data)
    gPmWeakIq                                0x200000a0   Data           2  fluxobserve.o(.data)
    afo15Sftn                                0x200000a8   Data           2  fluxobserve.o(.data)
    s16UmRohRef                              0x200000aa   Data           2  fluxobserve.o(.data)
    s16UtRohRef                              0x200000ac   Data           2  fluxobserve.o(.data)
    g_nD_CurrLoopKPL                         0x200000ae   Data           2  fluxobserve.o(.data)
    g_nD_CurrLoopKIL                         0x200000b0   Data           2  fluxobserve.o(.data)
    g_nQ_CurrLoopKPL                         0x200000b2   Data           2  fluxobserve.o(.data)
    g_nQ_CurrLoopKIL                         0x200000b4   Data           2  fluxobserve.o(.data)
    g_nD_CurrLoopKPH                         0x200000b6   Data           2  fluxobserve.o(.data)
    g_nD_CurrLoopKIH                         0x200000b8   Data           2  fluxobserve.o(.data)
    g_nQ_CurrLoopKPH                         0x200000ba   Data           2  fluxobserve.o(.data)
    g_nQ_CurrLoopKIH                         0x200000bc   Data           2  fluxobserve.o(.data)
    s16VolOutAvg                             0x200000be   Data           2  fluxobserve.o(.data)
    uMrasTheta_est                           0x200000c0   Data           4  fluxobserve.o(.data)
    gThetaComp                               0x200000c4   Data           4  fluxobserve.o(.data)
    gModCoef                                 0x200000c8   Data           4  fluxobserve.o(.data)
    gBemfPerUnitGain                         0x200000d0   Data           4  fluxobserve.o(.data)
    afo15                                    0x200000d4   Data           4  fluxobserve.o(.data)
    uPmRsPu                                  0x200000d8   Data           4  fluxobserve.o(.data)
    s32VolOutAvg                             0x200000dc   Data           4  fluxobserve.o(.data)
    iMrasIdEstN_1_Fs                         0x200000e0   Data           4  fluxobserve.o(.data)
    iMrasIqEstN_1_Fs                         0x200000e4   Data           4  fluxobserve.o(.data)
    synWeObsFilt                             0x200000e8   Data           4  fluxobserve.o(.data)
    iThetaErr2                               0x200000ec   Data           4  fluxobserve.o(.data)
    g_AngleComp                              0x200000f2   Data           2  onthefly.o(.data)
    g_nMotorSynEmf                           0x20000106   Data           2  onthefly.o(.data)
    g_nMotorSynEmfAngle                      0x20000108   Data           2  onthefly.o(.data)
    gVolMsdA                                 0x2000010a   Data           2  onthefly.o(.data)
    gVolMsdB                                 0x2000010c   Data           2  onthefly.o(.data)
    gBemfMeas                                0x2000010e   Data           2  onthefly.o(.data)
    gFreqMsd                                 0x20000110   Data           2  onthefly.o(.data)
    g_nMotorSynEmfFreq                       0x20000124   Data           4  onthefly.o(.data)
    struBemfVolt                             0x20000128   Data           6  onthefly.o(.data)
    struTaskScheduler                        0x20000130   Data          20  global_variable.o(.bss)
    struFOC_CtrProc                          0x20000144   Data          16  global_variable.o(.bss)
    struFOC_CurrLoop                         0x20000154   Data         236  global_variable.o(.bss)
    struFluxOB_Param                         0x20000240   Data          64  global_variable.o(.bss)
    struAppCommData                          0x20000280   Data          68  global_variable.o(.bss)
    struMotorSpeed                           0x200002c8   Data          88  global_variable.o(.bss)
    mOnTheFlyDetect                          0x20000320   Data          36  global_variable.o(.bss)
    mOpenForceRun                            0x20000344   Data          24  global_variable.o(.bss)
    struUser2App                             0x2000035c   Data          32  global_variable.o(.bss)
    struCore2App                             0x2000037c   Data          32  global_variable.o(.bss)
    struApp2Core                             0x2000039c   Data          32  global_variable.o(.bss)
    mIPD_CtrProc                             0x200003bc   Data          32  global_variable.o(.bss)
    struTime                                 0x200003dc   Data          14  state_machine.o(.bss)
    struCurrentAmplitude                     0x200003ec   Data          24  fault_detection.o(.bss)
    stru_FaultValue                          0x20000404   Data          60  fault_detection.o(.bss)
    struFaultVoltTime                        0x20000440   Data          14  fault_detection.o(.bss)
    struFaultEmptyTime                       0x2000044e   Data          14  fault_detection.o(.bss)
    struFaultStallTime                       0x2000045c   Data          14  fault_detection.o(.bss)
    struFaultCurrentTime                     0x2000046a   Data          14  fault_detection.o(.bss)
    struFaultTempTime                        0x20000478   Data          14  fault_detection.o(.bss)
    struFaultPhaseTime                       0x20000486   Data          14  fault_detection.o(.bss)
    struFaultStartTime                       0x20000494   Data          14  fault_detection.o(.bss)
    struPower                                0x200004a8   Data         112  powercalculation.o(.bss)
    FRSControl                               0x20000518   Data         104  heatcontrol.o(.bss)
    powerfreqcmd                             0x20000580   Data          12  user_app.o(.bss)
    UserSys                                  0x2000058c   Data          22  user_app.o(.bss)
    Button1                                  0x200005a4   Data          80  user_app.o(.bss)
    struFluxOB_Var                           0x200005f4   Data          32  fluxobserve.o(.bss)
    m_FluxOBSPara                            0x20000614   Data          56  fluxobserve.o(.bss)
    AEMFRM                                   0x2000064c   Data          28  fluxobserve.o(.bss)
    AEMFRT                                   0x20000668   Data          28  fluxobserve.o(.bss)
    AFWR                                     0x20000684   Data          20  fluxobserve.o(.bss)
    ATWR                                     0x20000698   Data          20  fluxobserve.o(.bss)
    __libspace_start                         0x200006ac   Data          96  libspace.o(.bss)
    __temporary_stack_top$libspace           0x2000070c   Data           0  libspace.o(.bss)



==============================================================================

Memory Map of the image

  Image Entry point : 0x000000c1

  Load Region LR_IROM1 (Base: 0x00000000, Size: 0x00006d1c, Max: 0x00008000, ABSOLUTE, COMPRESSED[0x00006c10])

    Execution Region ER_IROM1 (Exec base: 0x00000000, Load base: 0x00000000, Size: 0x00006bec, Max: 0x00008000, ABSOLUTE)

    Exec Addr    Load Addr    Size         Type   Attr      Idx    E Section Name        Object

    0x00000000   0x00000000   0x000000c0   Data   RO         2351    RESET               startup_lks32mc03x.o
    0x000000c0   0x000000c0   0x00000008   Code   RO         3151  * !!!main             c_p.l(__main.o)
    0x000000c8   0x000000c8   0x0000003c   Code   RO         3359    !!!scatter          c_p.l(__scatter.o)
    0x00000104   0x00000104   0x0000001c   Code   RO         3361    !!handler_zi        c_p.l(__scatter_zi.o)
    0x00000120   0x00000120   0x00000002   Code   RO         3224    .ARM.Collect$$libinit$$00000000  c_p.l(libinit.o)
    0x00000122   0x00000122   0x00000000   Code   RO         3238    .ARM.Collect$$libinit$$00000002  c_p.l(libinit2.o)
    0x00000122   0x00000122   0x00000000   Code   RO         3240    .ARM.Collect$$libinit$$00000004  c_p.l(libinit2.o)
    0x00000122   0x00000122   0x00000000   Code   RO         3243    .ARM.Collect$$libinit$$0000000A  c_p.l(libinit2.o)
    0x00000122   0x00000122   0x00000000   Code   RO         3245    .ARM.Collect$$libinit$$0000000C  c_p.l(libinit2.o)
    0x00000122   0x00000122   0x00000000   Code   RO         3247    .ARM.Collect$$libinit$$0000000E  c_p.l(libinit2.o)
    0x00000122   0x00000122   0x00000000   Code   RO         3250    .ARM.Collect$$libinit$$00000011  c_p.l(libinit2.o)
    0x00000122   0x00000122   0x00000000   Code   RO         3252    .ARM.Collect$$libinit$$00000013  c_p.l(libinit2.o)
    0x00000122   0x00000122   0x00000000   Code   RO         3254    .ARM.Collect$$libinit$$00000015  c_p.l(libinit2.o)
    0x00000122   0x00000122   0x00000000   Code   RO         3256    .ARM.Collect$$libinit$$00000017  c_p.l(libinit2.o)
    0x00000122   0x00000122   0x00000000   Code   RO         3258    .ARM.Collect$$libinit$$00000019  c_p.l(libinit2.o)
    0x00000122   0x00000122   0x00000000   Code   RO         3260    .ARM.Collect$$libinit$$0000001B  c_p.l(libinit2.o)
    0x00000122   0x00000122   0x00000000   Code   RO         3262    .ARM.Collect$$libinit$$0000001D  c_p.l(libinit2.o)
    0x00000122   0x00000122   0x00000000   Code   RO         3264    .ARM.Collect$$libinit$$0000001F  c_p.l(libinit2.o)
    0x00000122   0x00000122   0x00000000   Code   RO         3266    .ARM.Collect$$libinit$$00000021  c_p.l(libinit2.o)
    0x00000122   0x00000122   0x00000000   Code   RO         3268    .ARM.Collect$$libinit$$00000023  c_p.l(libinit2.o)
    0x00000122   0x00000122   0x00000000   Code   RO         3270    .ARM.Collect$$libinit$$00000025  c_p.l(libinit2.o)
    0x00000122   0x00000122   0x00000000   Code   RO         3274    .ARM.Collect$$libinit$$0000002C  c_p.l(libinit2.o)
    0x00000122   0x00000122   0x00000000   Code   RO         3276    .ARM.Collect$$libinit$$0000002E  c_p.l(libinit2.o)
    0x00000122   0x00000122   0x00000000   Code   RO         3278    .ARM.Collect$$libinit$$00000030  c_p.l(libinit2.o)
    0x00000122   0x00000122   0x00000000   Code   RO         3280    .ARM.Collect$$libinit$$00000032  c_p.l(libinit2.o)
    0x00000122   0x00000122   0x00000002   Code   RO         3281    .ARM.Collect$$libinit$$00000033  c_p.l(libinit2.o)
    0x00000124   0x00000124   0x00000002   Code   RO         3312    .ARM.Collect$$libshutdown$$00000000  c_p.l(libshutdown.o)
    0x00000126   0x00000126   0x00000000   Code   RO         3338    .ARM.Collect$$libshutdown$$00000002  c_p.l(libshutdown2.o)
    0x00000126   0x00000126   0x00000000   Code   RO         3340    .ARM.Collect$$libshutdown$$00000004  c_p.l(libshutdown2.o)
    0x00000126   0x00000126   0x00000000   Code   RO         3342    .ARM.Collect$$libshutdown$$00000006  c_p.l(libshutdown2.o)
    0x00000126   0x00000126   0x00000000   Code   RO         3345    .ARM.Collect$$libshutdown$$00000009  c_p.l(libshutdown2.o)
    0x00000126   0x00000126   0x00000000   Code   RO         3348    .ARM.Collect$$libshutdown$$0000000C  c_p.l(libshutdown2.o)
    0x00000126   0x00000126   0x00000000   Code   RO         3350    .ARM.Collect$$libshutdown$$0000000E  c_p.l(libshutdown2.o)
    0x00000126   0x00000126   0x00000000   Code   RO         3353    .ARM.Collect$$libshutdown$$00000011  c_p.l(libshutdown2.o)
    0x00000126   0x00000126   0x00000002   Code   RO         3354    .ARM.Collect$$libshutdown$$00000012  c_p.l(libshutdown2.o)
    0x00000128   0x00000128   0x00000000   Code   RO         3181    .ARM.Collect$$rtentry$$00000000  c_p.l(__rtentry.o)
    0x00000128   0x00000128   0x00000000   Code   RO         3190    .ARM.Collect$$rtentry$$00000002  c_p.l(__rtentry2.o)
    0x00000128   0x00000128   0x00000006   Code   RO         3202    .ARM.Collect$$rtentry$$00000004  c_p.l(__rtentry4.o)
    0x0000012e   0x0000012e   0x00000000   Code   RO         3192    .ARM.Collect$$rtentry$$00000009  c_p.l(__rtentry2.o)
    0x0000012e   0x0000012e   0x00000004   Code   RO         3193    .ARM.Collect$$rtentry$$0000000A  c_p.l(__rtentry2.o)
    0x00000132   0x00000132   0x00000000   Code   RO         3195    .ARM.Collect$$rtentry$$0000000C  c_p.l(__rtentry2.o)
    0x00000132   0x00000132   0x00000008   Code   RO         3196    .ARM.Collect$$rtentry$$0000000D  c_p.l(__rtentry2.o)
    0x0000013a   0x0000013a   0x00000002   Code   RO         3229    .ARM.Collect$$rtexit$$00000000  c_p.l(rtexit.o)
    0x0000013c   0x0000013c   0x00000000   Code   RO         3285    .ARM.Collect$$rtexit$$00000002  c_p.l(rtexit2.o)
    0x0000013c   0x0000013c   0x00000004   Code   RO         3286    .ARM.Collect$$rtexit$$00000003  c_p.l(rtexit2.o)
    0x00000140   0x00000140   0x00000006   Code   RO         3287    .ARM.Collect$$rtexit$$00000004  c_p.l(rtexit2.o)
    0x00000146   0x00000146   0x00000002   PAD
    0x00000148   0x00000148   0x00000038   Code   RO         3139    .emb_text           c_p.l(rt_memcpy.o)
    0x00000180   0x00000180   0x00000044   Code   RO         2352    .text               startup_lks32mc03x.o
    0x000001c4   0x000001c4   0x00000020   Code   RO         3127    .text               c_p.l(llshl.o)
    0x000001e4   0x000001e4   0x00000026   Code   RO         3129    .text               c_p.l(llsshr.o)
    0x0000020a   0x0000020a   0x00000030   Code   RO         3131    .text               c_p.l(llmul.o)
    0x0000023a   0x0000023a   0x00000070   Code   RO         3133    .text               c_p.l(llsdiv.o)
    0x000002aa   0x000002aa   0x00000082   Code   RO         3140    .text               c_p.l(rt_memcpy.o)
    0x0000032c   0x0000032c   0x00000040   Code   RO         3143    .text               c_p.l(rt_memclr.o)
    0x0000036c   0x0000036c   0x0000015a   Code   RO         3145    .text               c_p.l(aeabi_sdiv.o)
    0x000004c6   0x000004c6   0x00000006   Code   RO         3149    .text               c_p.l(heapauxi.o)
    0x000004cc   0x000004cc   0x0000007c   Code   RO         3153    .text               fz_ps.l(d2f.o)
    0x00000548   0x00000548   0x00000358   Code   RO         3155    .text               fz_ps.l(daddsub.o)
    0x000008a0   0x000008a0   0x00000448   Code   RO         3157    .text               fz_ps.l(ddiv.o)
    0x00000ce8   0x00000ce8   0x0000006c   Code   RO         3160    .text               fz_ps.l(dfixi.o)
    0x00000d54   0x00000d54   0x00000048   Code   RO         3162    .text               fz_ps.l(dfixui.o)
    0x00000d9c   0x00000d9c   0x00000058   Code   RO         3164    .text               fz_ps.l(dflti.o)
    0x00000df4   0x00000df4   0x00000084   Code   RO         3166    .text               fz_ps.l(dfltl.o)
    0x00000e78   0x00000e78   0x00000248   Code   RO         3168    .text               fz_ps.l(dmul.o)
    0x000010c0   0x000010c0   0x00000054   Code   RO         3170    .text               fz_ps.l(f2d.o)
    0x00001114   0x00001114   0x00000160   Code   RO         3172    .text               fz_ps.l(fdiv.o)
    0x00001274   0x00001274   0x0000004c   Code   RO         3175    .text               fz_ps.l(ffixi.o)
    0x000012c0   0x000012c0   0x0000005e   Code   RO         3177    .text               fz_ps.l(fflti.o)
    0x0000131e   0x0000131e   0x00000102   Code   RO         3186    .text               c_p.l(lludiv.o)
    0x00001420   0x00001420   0x0000003e   Code   RO         3210    .text               c_p.l(sys_stackheap_outer.o)
    0x0000145e   0x0000145e   0x00000010   Code   RO         3213    .text               c_p.l(exit.o)
    0x0000146e   0x0000146e   0x00000002   PAD
    0x00001470   0x00001470   0x00000008   Code   RO         3225    .text               c_p.l(libspace.o)
    0x00001478   0x00001478   0x0000000c   Code   RO         3282    .text               c_p.l(sys_exit.o)
    0x00001484   0x00001484   0x00000002   Code   RO         3301    .text               c_p.l(use_no_semi.o)
    0x00001486   0x00001486   0x00000000   Code   RO         3303    .text               c_p.l(indicate_semi.o)
    0x00001486   0x00001486   0x0000003a   Code   RO         3357    .text               c_p.l(__dczerorl.o)
    0x000014c0   0x000014c0   0x000000a8   Code   RO          300    i.ADC_IRQHandler    interrupt.o
    0x00001568   0x00001568   0x00000048   Code   RO         1650    i.ADC_Init          lks32mc03x_adc.o
    0x000015b0   0x000015b0   0x0000002c   Code   RO         1265    i.ADC_NormalModeCFG  signalchain_sample.o
    0x000015dc   0x000015dc   0x00000020   Code   RO         1651    i.ADC_StructInit    lks32mc03x_adc.o
    0x000015fc   0x000015fc   0x00000058   Code   RO          158    i.ADC_init          hardware_init.o
    0x00001654   0x00001654   0x0000005c   Code   RO         1195    i.AdcSampleCal      foc_drive.o
    0x000016b0   0x000016b0   0x00000010   Code   RO         2626    i.Add_Button        button.o
    0x000016c0   0x000016c0   0x00000010   Code   RO         1098    i.App2CoreCurTrans  app2core.o
    0x000016d0   0x000016d0   0x00000010   Code   RO         1099    i.App2CoreFreqTrans  app2core.o
    0x000016e0   0x000016e0   0x0000005c   Code   RO         2839    i.AutoFieldWeakReg  LKS03x_FluxOBS_V2p16_0624.lib(fluxobserve.o)
    0x0000173c   0x0000173c   0x00000030   Code   RO         2358    i.Btn1_Dowm_CallBack  user_app.o
    0x0000176c   0x0000176c   0x0000001e   Code   RO         2627    i.Button_Attach     button.o
    0x0000178a   0x0000178a   0x00000064   Code   RO         2628    i.Button_Create     button.o
    0x000017ee   0x000017ee   0x0000013e   Code   RO         2629    i.Button_Cycle_Process  button.o
    0x0000192c   0x0000192c   0x0000001c   Code   RO         2631    i.Button_Process    button.o
    0x00001948   0x00001948   0x00000064   Code   RO          301    i.CMP_IRQHandler    interrupt.o
    0x000019ac   0x000019ac   0x000000e0   Code   RO         1688    i.CMP_Init          lks32mc03x_cmp.o
    0x00001a8c   0x00001a8c   0x00000040   Code   RO         1689    i.CMP_StructInit    lks32mc03x_cmp.o
    0x00001acc   0x00001acc   0x0000004c   Code   RO          159    i.CMP_init          hardware_init.o
    0x00001b18   0x00001b18   0x00000028   Code   RO          160    i.Clock_Init        hardware_init.o
    0x00001b40   0x00001b40   0x0000005e   Code   RO          697    i.CurrentAmplitudeCalc  fault_detection.o
    0x00001b9e   0x00001b9e   0x00000002   PAD
    0x00001ba0   0x00001ba0   0x00000040   Code   RO          551    i.CurrentLoopAxisD_Set  state_machine.o
    0x00001be0   0x00001be0   0x00000040   Code   RO          552    i.CurrentLoopAxisQ_Set  state_machine.o
    0x00001c20   0x00001c20   0x00000048   Code   RO         1196    i.CurrentLoopReg    foc_drive.o
    0x00001c68   0x00001c68   0x00000014   Code   RO         1060    i.CurrentMagCalc    mc_math.o
    0x00001c7c   0x00001c7c   0x00000100   Code   RO          479    i.CurrentOffsetCalibration  system_init.o
    0x00001d7c   0x00001d7c   0x00000034   Code   RO         1305    i.CurrentPIRegulator  pid_regulators.o
    0x00001db0   0x00001db0   0x00000012   Code   RO          161    i.DAC_Init          hardware_init.o
    0x00001dc2   0x00001dc2   0x00000018   Code   RO         1723    i.DMA_CHx_EN        lks32mc03x_dma.o
    0x00001dda   0x00001dda   0x00000002   Code   RO          302    i.DMA_IRQHandler    interrupt.o
    0x00001ddc   0x00001ddc   0x00000084   Code   RO         1726    i.DMA_Init          lks32mc03x_dma.o
    0x00001e60   0x00001e60   0x0000004c   Code   RO         2840    i.DcVoltPerUnitCalc  LKS03x_FluxOBS_V2p16_0624.lib(fluxobserve.o)
    0x00001eac   0x00001eac   0x00000058   Code   RO         2841    i.DcVoltPerUnitCalcInt  LKS03x_FluxOBS_V2p16_0624.lib(fluxobserve.o)
    0x00001f04   0x00001f04   0x0000008c   Code   RO         1776    i.EraseSector       lks32mc03x_flash.o
    0x00001f90   0x00001f90   0x0000004c   Code   RO         2359    i.EraseWriteFlash   user_app.o
    0x00001fdc   0x00001fdc   0x0000006c   Code   RO         1197    i.FOC_InitstruParam  foc_drive.o
    0x00002048   0x00002048   0x000000a0   Code   RO         1198    i.FOC_Model         foc_drive.o
    0x000020e8   0x000020e8   0x00000040   Code   RO         2842    i.FWLoopPIReg       LKS03x_FluxOBS_V2p16_0624.lib(fluxobserve.o)
    0x00002128   0x00002128   0x000000d8   Code   RO          699    i.FaultCheck        fault_detection.o
    0x00002200   0x00002200   0x00000048   Code   RO          700    i.FaultCurrentCheck  fault_detection.o
    0x00002248   0x00002248   0x000000f8   Code   RO          702    i.FaultInit         fault_detection.o
    0x00002340   0x00002340   0x00000060   Code   RO          703    i.FaultPhaseCheck   fault_detection.o
    0x000023a0   0x000023a0   0x00000080   Code   RO          704    i.FaultRecover      fault_detection.o
    0x00002420   0x00002420   0x00000044   Code   RO          705    i.FaultRecoverInit  fault_detection.o
    0x00002464   0x00002464   0x000001c8   Code   RO          706    i.FaultStallCheck   fault_detection.o
    0x0000262c   0x0000262c   0x000000d0   Code   RO          707    i.FaultStartCheck   fault_detection.o
    0x000026fc   0x000026fc   0x00000002   Code   RO          708    i.FaultTempCheck    fault_detection.o
    0x000026fe   0x000026fe   0x00000002   PAD
    0x00002700   0x00002700   0x00000074   Code   RO          709    i.FaultVoltageCheck  fault_detection.o
    0x00002774   0x00002774   0x0000001c   Code   RO         2843    i.FindQNum          LKS03x_FluxOBS_V2p16_0624.lib(fluxobserve.o)
    0x00002790   0x00002790   0x00000064   Code   RO          480    i.FluxObserveInit   system_init.o
    0x000027f4   0x000027f4   0x0000065c   Code   RO         2844    i.FluxObserveParaCalc  LKS03x_FluxOBS_V2p16_0624.lib(fluxobserve.o)
    0x00002e50   0x00002e50   0x00000028   Code   RO         2845    i.Flux_OBS_ParaInit  LKS03x_FluxOBS_V2p16_0624.lib(fluxobserve.o)
    0x00002e78   0x00002e78   0x000000b0   Code   RO         2360    i.FunStateCharge    user_app.o
    0x00002f28   0x00002f28   0x00000002   Code   RO          305    i.GPIO_IRQHandler   interrupt.o
    0x00002f2a   0x00002f2a   0x00000080   Code   RO         1851    i.GPIO_Init         lks32mc03x_gpio.o
    0x00002faa   0x00002faa   0x00000002   PAD
    0x00002fac   0x00002fac   0x000000ec   Code   RO         1852    i.GPIO_PinAFConfig  lks32mc03x_gpio.o
    0x00003098   0x00003098   0x0000000e   Code   RO         1854    i.GPIO_ReadInputDataBit  lks32mc03x_gpio.o
    0x000030a6   0x000030a6   0x00000004   Code   RO         1857    i.GPIO_ResetBits    lks32mc03x_gpio.o
    0x000030aa   0x000030aa   0x00000004   Code   RO         1858    i.GPIO_SetBits      lks32mc03x_gpio.o
    0x000030ae   0x000030ae   0x0000000c   Code   RO         1859    i.GPIO_StructInit   lks32mc03x_gpio.o
    0x000030ba   0x000030ba   0x00000002   PAD
    0x000030bc   0x000030bc   0x00000060   Code   RO          163    i.GPIO_init         hardware_init.o
    0x0000311c   0x0000311c   0x0000003c   Code   RO         2361    i.GetHeartNTCTemp   user_app.o
    0x00003158   0x00003158   0x00000078   Code   RO         2362    i.GetVdcSpeed       user_app.o
    0x000031d0   0x000031d0   0x00000018   Code   RO         2363    i.Get_Power         user_app.o
    0x000031e8   0x000031e8   0x00000054   Code   RO         2364    i.Get_tempreture_num  user_app.o
    0x0000323c   0x0000323c   0x00000002   Code   RO          306    i.HALL_IRQHandler   interrupt.o
    0x0000323e   0x0000323e   0x00000002   PAD
    0x00003240   0x00003240   0x00000050   Code   RO         1940    i.HALL_Init         lks32mc03x_hall.o
    0x00003290   0x00003290   0x0000003c   Code   RO          164    i.HALL_Perip_Init   hardware_init.o
    0x000032cc   0x000032cc   0x00000024   Code   RO         1943    i.HALL_StructInit   lks32mc03x_hall.o
    0x000032f0   0x000032f0   0x000000b4   Code   RO          165    i.Hardware_init     hardware_init.o
    0x000033a4   0x000033a4   0x00000140   Code   RO          989    i.HeaterControl     heatcontrol.o
    0x000034e4   0x000034e4   0x000000bc   Code   RO          990    i.HeaterControl_1ms  heatcontrol.o
    0x000035a0   0x000035a0   0x000000d4   Code   RO          991    i.HeaterTemperature_Control  heatcontrol.o
    0x00003674   0x00003674   0x00000014   Code   RO          307    i.I2C_IRQHandler    interrupt.o
    0x00003688   0x00003688   0x00000090   Code   RO         2002    i.I2C_Init          lks32mc03x_i2c.o
    0x00003718   0x00003718   0x00000020   Code   RO         2003    i.I2C_StructInit    lks32mc03x_i2c.o
    0x00003738   0x00003738   0x00000034   Code   RO          166    i.I2C_init          hardware_init.o
    0x0000376c   0x0000376c   0x0000001c   Code   RO         2551    i.IIC_Write_Reg     lcd.o
    0x00003788   0x00003788   0x00000038   Code   RO         2365    i.Key_Speed         user_app.o
    0x000037c0   0x000037c0   0x000000a4   Code   RO         2366    i.LCD_Process       user_app.o
    0x00003864   0x00003864   0x0000002c   Code   RO          847    i.LowPassControl    powercalculation.o
    0x00003890   0x00003890   0x00000034   Code   RO          308    i.MCPWM0_IRQHandler  interrupt.o
    0x000038c4   0x000038c4   0x00000050   Code   RO         1267    i.MCPWM0_RegUpdate  signalchain_sample.o
    0x00003914   0x00003914   0x00000002   Code   RO          309    i.MCPWM1_IRQHandler  interrupt.o
    0x00003916   0x00003916   0x00000002   PAD
    0x00003918   0x00003918   0x00000228   Code   RO         2119    i.MCPWM_Init        lks32mc03x_mcpwm.o
    0x00003b40   0x00003b40   0x0000000a   Code   RO         2120    i.MCPWM_StructInit  lks32mc03x_mcpwm.o
    0x00003b4a   0x00003b4a   0x00000002   PAD
    0x00003b4c   0x00003b4c   0x000000a8   Code   RO          167    i.MCPWM_init        hardware_init.o
    0x00003bf4   0x00003bf4   0x00000028   Code   RO         2367    i.MemoryRestore     user_app.o
    0x00003c1c   0x00003c1c   0x000000b0   Code   RO         2846    i.ModuCircle_Limitation  LKS03x_FluxOBS_V2p16_0624.lib(fluxobserve.o)
    0x00003ccc   0x00003ccc   0x000005b0   Code   RO         2368    i.NTC_R_change      user_app.o
    0x0000427c   0x0000427c   0x00000010   Code   RO         2847    i.OnTheFlyDetectInit  LKS03x_FluxOBS_V2p16_0624.lib(fluxobserve.o)
    0x0000428c   0x0000428c   0x0000004c   Code   RO         2848    i.OpenCloseAngleSwitch  LKS03x_FluxOBS_V2p16_0624.lib(fluxobserve.o)
    0x000042d8   0x000042d8   0x00000040   Code   RO          810    i.OpenLoopCurRamp   process_control.o
    0x00004318   0x00004318   0x0000002c   Code   RO          168    i.PGA_Init          hardware_init.o
    0x00004344   0x00004344   0x00000030   Code   RO         2121    i.PWMOutputs        lks32mc03x_mcpwm.o
    0x00004374   0x00004374   0x000000a0   Code   RO         2849    i.PmsmFluxObIni     LKS03x_FluxOBS_V2p16_0624.lib(fluxobserve.o)
    0x00004414   0x00004414   0x000000dc   Code   RO         2850    i.PmsmFluxObserve   LKS03x_FluxOBS_V2p16_0624.lib(fluxobserve.o)
    0x000044f0   0x000044f0   0x0000004c   Code   RO          848    i.PowerCalc         powercalculation.o
    0x0000453c   0x0000453c   0x00000008   Code   RO         2636    i.Print_Btn_Info    button.o
    0x00004544   0x00004544   0x000000f4   Code   RO         1781    i.ProgramPage       lks32mc03x_flash.o
    0x00004638   0x00004638   0x00000002   Code   RO          310    i.SPI_IRQHandler    interrupt.o
    0x0000463a   0x0000463a   0x00000002   PAD
    0x0000463c   0x0000463c   0x0000013c   Code   RO         2711    i.SVPWM_2ShuntGEN   LKS03x_FluxOBS_V2p16_0624.lib(lib_svpwm.o)
    0x00004778   0x00004778   0x00000034   Code   RO         1268    i.SVPWM_2ShuntGetPhaseCurrent  signalchain_sample.o
    0x000047ac   0x000047ac   0x00000002   Code   RO          311    i.SW_IRQHandler     interrupt.o
    0x000047ae   0x000047ae   0x00000002   PAD
    0x000047b0   0x000047b0   0x00000044   Code   RO         2213    i.SYS_AnalogModuleClockCmd  lks32mc03x_sys.o
    0x000047f4   0x000047f4   0x00000028   Code   RO         2217    i.SYS_ModuleClockCmd  lks32mc03x_sys.o
    0x0000481c   0x0000481c   0x00000018   Code   RO         2218    i.SYS_SoftResetModule  lks32mc03x_sys.o
    0x00004834   0x00004834   0x00000014   Code   RO         2637    i.Search_Button     button.o
    0x00004848   0x00004848   0x00000018   Code   RO          519    i.SoftDelay         task_scheduler.o
    0x00004860   0x00004860   0x00000034   Code   RO         1199    i.SpeedLoopReg      foc_drive.o
    0x00004894   0x00004894   0x00000028   Code   RO          554    i.SpeedLoop_Set     state_machine.o
    0x000048bc   0x000048bc   0x000000d6   Code   RO         1307    i.SpeedPIRegulator  pid_regulators.o
    0x00004992   0x00004992   0x0000002e   Code   RO          812    i.SpeedReferenceGen  process_control.o
    0x000049c0   0x000049c0   0x00000078   Code   RO          555    i.StateAlign        state_machine.o
    0x00004a38   0x00004a38   0x00000118   Code   RO          556    i.StateCharge       state_machine.o
    0x00004b50   0x00004b50   0x00000020   Code   RO          559    i.StateFault        state_machine.o
    0x00004b70   0x00004b70   0x00000274   Code   RO          561    i.StateInit         state_machine.o
    0x00004de4   0x00004de4   0x000000f0   Code   RO          562    i.StateOpen         state_machine.o
    0x00004ed4   0x00004ed4   0x0000021c   Code   RO          564    i.StateRun          state_machine.o
    0x000050f0   0x000050f0   0x00000024   Code   RO          565    i.StateStop         state_machine.o
    0x00005114   0x00005114   0x00000028   Code   RO         2638    i.StrnCopy          button.o
    0x0000513c   0x0000513c   0x00000002   Code   RO          313    i.SysTick_Handler   interrupt.o
    0x0000513e   0x0000513e   0x00000002   PAD
    0x00005140   0x00005140   0x00000110   Code   RO          566    i.Sys_State_Machine  state_machine.o
    0x00005250   0x00005250   0x00000008   Code   RO          169    i.SystemInit        hardware_init.o
    0x00005258   0x00005258   0x00000002   Code   RO          314    i.TIMER0_IRQHandler  interrupt.o
    0x0000525a   0x0000525a   0x00000002   PAD
    0x0000525c   0x0000525c   0x00000034   Code   RO          315    i.TIMER1_IRQHandler  interrupt.o
    0x00005290   0x00005290   0x000000ac   Code   RO         2269    i.TIM_TimerInit     lks32mc03x_timer.o
    0x0000533c   0x0000533c   0x00000034   Code   RO         2270    i.TIM_TimerStrutInit  lks32mc03x_timer.o
    0x00005370   0x00005370   0x000000a8   Code   RO          520    i.Task_Scheduler    task_scheduler.o
    0x00005418   0x00005418   0x0000001c   Code   RO          170    i.TempSensor_Init   hardware_init.o
    0x00005434   0x00005434   0x00000038   Code   RO         2369    i.Temp_circulation  user_app.o
    0x0000546c   0x0000546c   0x000001b4   Code   RO         2370    i.Temp_demarcate    user_app.o
    0x00005620   0x00005620   0x0000007c   Code   RO         1061    i.Trig_Functions    mc_math.o
    0x0000569c   0x0000569c   0x00000002   Code   RO          317    i.UART_IRQHandler   interrupt.o
    0x0000569e   0x0000569e   0x00000002   PAD
    0x000056a0   0x000056a0   0x00000034   Code   RO         2372    i.USER_APP_vTick10ms  user_app.o
    0x000056d4   0x000056d4   0x00000010   Code   RO         2373    i.USER_APP_vTick1ms  user_app.o
    0x000056e4   0x000056e4   0x0000000c   Code   RO         2374    i.USER_APP_vTick20ms  user_app.o
    0x000056f0   0x000056f0   0x0000014c   Code   RO         2375    i.USER_APP_vTick500ms  user_app.o
    0x0000583c   0x0000583c   0x0000009c   Code   RO         2376    i.USER_GPIO_Init    user_app.o
    0x000058d8   0x000058d8   0x0000005c   Code   RO         2377    i.USER_Init         user_app.o
    0x00005934   0x00005934   0x00000028   Code   RO          173    i.UTimer_init       hardware_init.o
    0x0000595c   0x0000595c   0x00000024   Code   RO         1107    i.User2AppAngleTrans  app2core.o
    0x00005980   0x00005980   0x00000020   Code   RO         1108    i.User2AppCurTrans  app2core.o
    0x000059a0   0x000059a0   0x00000020   Code   RO         1109    i.User2AppFreqTrans  app2core.o
    0x000059c0   0x000059c0   0x00000038   Code   RO         1110    i.User2AppVolTrans  app2core.o
    0x000059f8   0x000059f8   0x00000002   Code   RO          318    i.WAKE_IRQHandler   interrupt.o
    0x000059fa   0x000059fa   0x00000030   Code   RO         2934    i.__ARM_common_ll_mulss  LKS03x_FluxOBS_V2p16_0624.lib(fluxobserve.o)
    0x00005a2a   0x00005a2a   0x00000030   Code   RO         2932    i.__ARM_common_ll_muluu  LKS03x_FluxOBS_V2p16_0624.lib(fluxobserve.o)
    0x00005a5a   0x00005a5a   0x0000001a   Code   RO          663    i.__ARM_common_switch8  state_machine.o
    0x00005a74   0x00005a74   0x00000020   Code   RO          174    i.__NVIC_DisableIRQ  hardware_init.o
    0x00005a94   0x00005a94   0x00000018   Code   RO          175    i.__NVIC_EnableIRQ  hardware_init.o
    0x00005aac   0x00005aac   0x00000044   Code   RO          176    i.__NVIC_SetPriority  hardware_init.o
    0x00005af0   0x00005af0   0x00000034   Code   RO         2005    i.i2c_dma_delay_over  lks32mc03x_i2c.o
    0x00005b24   0x00005b24   0x00000040   Code   RO         2006    i.i2c_dma_init      lks32mc03x_i2c.o
    0x00005b64   0x00005b64   0x0000000c   Code   RO         2008    i.i2c_dma_state_over  lks32mc03x_i2c.o
    0x00005b70   0x00005b70   0x0000000c   Code   RO         2009    i.i2c_dma_state_start  lks32mc03x_i2c.o
    0x00005b7c   0x00005b7c   0x00000054   Code   RO         2010    i.i2c_dma_tx        lks32mc03x_i2c.o
    0x00005bd0   0x00005bd0   0x00000034   Code   RO         2552    i.lcd_init          lcd.o
    0x00005c04   0x00005c04   0x00000048   Code   RO         2553    i.lcd_show_all_clean  lcd.o
    0x00005c4c   0x00005c4c   0x00000044   Code   RO         2554    i.lcd_show_all_data  lcd.o
    0x00005c90   0x00005c90   0x00000060   Code   RO         2555    i.lcd_show_all_number  lcd.o
    0x00005cf0   0x00005cf0   0x0000001c   Code   RO         2556    i.lcd_show_constant_temperature  lcd.o
    0x00005d0c   0x00005d0c   0x0000000c   Code   RO         2557    i.lcd_show_ones     lcd.o
    0x00005d18   0x00005d18   0x0000001c   Code   RO         2558    i.lcd_show_speed    lcd.o
    0x00005d34   0x00005d34   0x00000064   Code   RO         2559    i.lcd_show_temp_gear  lcd.o
    0x00005d98   0x00005d98   0x00000038   Code   RO         1038    i.main              main.o
    0x00005dd0   0x00005dd0   0x00000014   Code   RO         2378    i.read_btn1_level   user_app.o
    0x00005de4   0x00005de4   0x00000024   Code   RO          481    i.sys_init          system_init.o
    0x00005e08   0x00005e08   0x00000018   Code   RO         2379    i.vLoadForFlashing  user_app.o
    0x00005e20   0x00005e20   0x000000b0   Code   RO         3179    x$fpl$fmul          fz_ps.l(fmul.o)
    0x00005ed0   0x00005ed0   0x00000000   Code   RO         3188    x$fpl$usenofp       fz_ps.l(usenofp.o)
    0x00005ed0   0x00005ed0   0x0000000a   Data   RO           17    .constdata          global_variable.o
    0x00005eda   0x00005eda   0x00000010   Data   RO           18    .constdata          global_variable.o
    0x00005eea   0x00005eea   0x00000002   PAD
    0x00005eec   0x00005eec   0x0000002c   Data   RO           19    .constdata          global_variable.o
    0x00005f18   0x00005f18   0x00000024   Data   RO           20    .constdata          global_variable.o
    0x00005f3c   0x00005f3c   0x000009c4   Data   RO          993    .constdata          heatcontrol.o
    0x00006900   0x00006900   0x00000200   Data   RO         1062    .constdata          mc_math.o
    0x00006b00   0x00006b00   0x0000000a   Data   RO         2561    .constdata          lcd.o
    0x00006b0a   0x00006b0a   0x00000080   Data   RO         3158    .constdata          fz_ps.l(ddiv.o)
    0x00006b8a   0x00006b8a   0x00000040   Data   RO         3173    .constdata          fz_ps.l(fdiv.o)
    0x00006bca   0x00006bca   0x00000002   PAD
    0x00006bcc   0x00006bcc   0x00000020   Data   RO         3355    Region$$Table       anon$$obj.o


    Execution Region RW_IRAM1 (Exec base: 0x20000000, Load base: 0x00006bec, Size: 0x00000d10, Max: 0x00001000, ABSOLUTE, COMPRESSED[0x00000024])

    Exec Addr    Load Addr    Size         Type   Attr      Idx    E Section Name        Object

    0x20000000   COMPRESSED   0x0000000c   Data   RW          568    .data               state_machine.o
    0x2000000c   COMPRESSED   0x0000000c   Data   RW          712    .data               fault_detection.o
    0x20000018   COMPRESSED   0x0000000c   Data   RW          994    .data               heatcontrol.o
    0x20000024   COMPRESSED   0x00000004   Data   RW         1201    .data               foc_drive.o
    0x20000028   COMPRESSED   0x00000001   Data   RW         2011    .data               lks32mc03x_i2c.o
    0x20000029   COMPRESSED   0x00000003   PAD
    0x2000002c   COMPRESSED   0x0000004c   Data   RW         2381    .data               user_app.o
    0x20000078   COMPRESSED   0x0000000a   Data   RW         2562    .data               lcd.o
    0x20000082   COMPRESSED   0x00000002   PAD
    0x20000084   COMPRESSED   0x00000004   Data   RW         2639    .data               button.o
    0x20000088   COMPRESSED   0x00000068   Data   RW         2852    .data               LKS03x_FluxOBS_V2p16_0624.lib(fluxobserve.o)
    0x200000f0   COMPRESSED   0x0000003e   Data   RW         2990    .data               LKS03x_FluxOBS_V2p16_0624.lib(onthefly.o)
    0x2000012e   COMPRESSED   0x00000002   PAD
    0x20000130        -       0x00000014   Zero   RW            3    .bss                global_variable.o
    0x20000144        -       0x00000010   Zero   RW            4    .bss                global_variable.o
    0x20000154        -       0x000000ec   Zero   RW            5    .bss                global_variable.o
    0x20000240        -       0x00000040   Zero   RW            6    .bss                global_variable.o
    0x20000280        -       0x00000044   Zero   RW            7    .bss                global_variable.o
    0x200002c4   COMPRESSED   0x00000004   PAD
    0x200002c8        -       0x00000058   Zero   RW            8    .bss                global_variable.o
    0x20000320        -       0x00000024   Zero   RW            9    .bss                global_variable.o
    0x20000344        -       0x00000018   Zero   RW           12    .bss                global_variable.o
    0x2000035c        -       0x00000020   Zero   RW           13    .bss                global_variable.o
    0x2000037c        -       0x00000020   Zero   RW           14    .bss                global_variable.o
    0x2000039c        -       0x00000020   Zero   RW           15    .bss                global_variable.o
    0x200003bc        -       0x00000020   Zero   RW           16    .bss                global_variable.o
    0x200003dc        -       0x0000000e   Zero   RW          567    .bss                state_machine.o
    0x200003ea   COMPRESSED   0x00000002   PAD
    0x200003ec        -       0x000000b6   Zero   RW          710    .bss                fault_detection.o
    0x200004a2   COMPRESSED   0x00000006   PAD
    0x200004a8        -       0x00000070   Zero   RW          855    .bss                powercalculation.o
    0x20000518        -       0x00000068   Zero   RW          992    .bss                heatcontrol.o
    0x20000580        -       0x00000074   Zero   RW         2380    .bss                user_app.o
    0x200005f4        -       0x000000b8   Zero   RW         2851    .bss                LKS03x_FluxOBS_V2p16_0624.lib(fluxobserve.o)
    0x200006ac        -       0x00000060   Zero   RW         3226    .bss                c_p.l(libspace.o)
    0x2000070c   COMPRESSED   0x00000004   PAD
    0x20000710        -       0x00000200   Zero   RW         2350    HEAP                startup_lks32mc03x.o
    0x20000910        -       0x00000400   Zero   RW         2349    STACK               startup_lks32mc03x.o


==============================================================================

Image component sizes


      Code (inc. data)   RO Data    RW Data    ZI Data      Debug   Object Name

       188         42          0          0          0       3366   app2core.o
       560         18          0          4          0       5408   button.o
      1704        204          0         12        182      11031   fault_detection.o
       484         58          0          4          0      10630   foc_drive.o
         0          0        106          0        680      53693   global_variable.o
      1022        124          0          0          0      19638   hardware_init.o
       720         66       2500         12        104       9186   heatcontrol.o
       412         78          0          0          0       7675   interrupt.o
       484         52         10         10          0       5978   lcd.o
       104          0          0          0          0       5612   lks32mc03x_adc.o
       288         18          0          0          0       3292   lks32mc03x_cmp.o
       156         10          0          0          0       3188   lks32mc03x_dma.o
       384         76          0          0          0       2548   lks32mc03x_flash.o
       398         28          0          0          0       5109   lks32mc03x_gpio.o
       116          8          0          0          0       2726   lks32mc03x_hall.o
       400         58          0          1          0       5809   lks32mc03x_i2c.o
       610         26          0          0          0       7669   lks32mc03x_mcpwm.o
       132         26          0          0          0       1874   lks32mc03x_sys.o
       224         10          0          0          0       3765   lks32mc03x_timer.o
        56         12          0          0          0        495   main.o
       144          8        512          0          0       3687   mc_math.o
       266          0          0          0          0       1912   pid_regulators.o
       120         10          0          0        112       3147   powercalculation.o
       110          0          0          0          0       1578   process_control.o
       176         34          0          0          0       2357   signalchain_sample.o
        68         32        192          0       1536        692   startup_lks32mc03x.o
      2342        368          0         12         14      12774   state_machine.o
       392         64          0          0          0       2356   system_init.o
       192         24          0          0          0       3085   task_scheduler.o
      3500        716          0         76        116      18661   user_app.o

    ----------------------------------------------------------------------
     15776       2170       3354        136       2756     218941   Object Totals
         0          0         32          0          0          0   (incl. Generated)
        24          0          2          5         12          0   (incl. Padding)

    ----------------------------------------------------------------------

      Code (inc. data)   RO Data    RW Data    ZI Data      Debug   Library Member Name

      2760        284          0        104        184      11555   fluxobserve.o
       316          6          0          0          0      15508   lib_svpwm.o
         0          0          0         62          0       4119   onthefly.o
        58          0          0          0          0          0   __dczerorl.o
         8          0          0          0          0         68   __main.o
         0          0          0          0          0          0   __rtentry.o
        12          0          0          0          0          0   __rtentry2.o
         6          0          0          0          0          0   __rtentry4.o
        60          8          0          0          0          0   __scatter.o
        28          0          0          0          0          0   __scatter_zi.o
       346          0          0          0          0         92   aeabi_sdiv.o
        16          0          0          0          0         68   exit.o
         6          0          0          0          0        136   heapauxi.o
         0          0          0          0          0          0   indicate_semi.o
         2          0          0          0          0          0   libinit.o
         2          0          0          0          0          0   libinit2.o
         2          0          0          0          0          0   libshutdown.o
         2          0          0          0          0          0   libshutdown2.o
         8          4          0          0         96         68   libspace.o
        48          0          0          0          0         72   llmul.o
       112          0          0          0          0         72   llsdiv.o
        32          0          0          0          0         68   llshl.o
        38          0          0          0          0         68   llsshr.o
       258          0          0          0          0         88   lludiv.o
        64          0          0          0          0        108   rt_memclr.o
       186          0          0          0          0        144   rt_memcpy.o
         2          0          0          0          0          0   rtexit.o
        10          0          0          0          0          0   rtexit2.o
        12          4          0          0          0         60   sys_exit.o
        62          0          0          0          0         80   sys_stackheap_outer.o
         2          0          0          0          0         68   use_no_semi.o
       124          4          0          0          0         72   d2f.o
       856         20          0          0          0        208   daddsub.o
      1096         26        128          0          0        112   ddiv.o
       108         10          0          0          0         72   dfixi.o
        72          4          0          0          0         68   dfixui.o
        88          0          0          0          0         92   dflti.o
       132          4          0          0          0        100   dfltl.o
       584         26          0          0          0         84   dmul.o
        84          4          0          0          0         60   f2d.o
       352         10         64          0          0         92   fdiv.o
        76          0          0          0          0         68   ffixi.o
        94          0          0          0          0         92   fflti.o
       176          4          0          0          0         80   fmul.o
         0          0          0          0          0          0   usenofp.o

    ----------------------------------------------------------------------
      8304        418        194        168        284      33642   Library Totals
         4          0          2          2          4          0   (incl. Padding)

    ----------------------------------------------------------------------

      Code (inc. data)   RO Data    RW Data    ZI Data      Debug   Library Name

      3076        290          0        166        184      31182   LKS03x_FluxOBS_V2p16_0624.lib
      1382         16          0          0         96       1260   c_p.l
      3842        112        192          0          0       1200   fz_ps.l

    ----------------------------------------------------------------------
      8304        418        194        168        284      33642   Library Totals

    ----------------------------------------------------------------------

==============================================================================


      Code (inc. data)   RO Data    RW Data    ZI Data      Debug   

     24080       2588       3548        304       3040     244375   Grand Totals
     24080       2588       3548         36       3040     244375   ELF Image Totals (compressed)
     24080       2588       3548         36          0          0   ROM Totals

==============================================================================

    Total RO  Size (Code + RO Data)                27628 (  26.98kB)
    Total RW  Size (RW Data + ZI Data)              3344 (   3.27kB)
    Total ROM Size (Code + RO Data + RW Data)      27664 (  27.02kB)

==============================================================================

